
pot.elf:     file format elf32-msp430


Disassembly of section .text:

0000c000 <__watchdog_support>:
    c000:	55 42 20 01 	mov.b	&0x0120,r5	
    c004:	35 d0 08 5a 	bis	#23048,	r5	;#0x5a08
    c008:	82 45 08 02 	mov	r5,	&0x0208	

0000c00c <__init_stack>:
    c00c:	31 40 00 04 	mov	#1024,	r1	;#0x0400

0000c010 <__do_copy_data>:
    c010:	3f 40 00 00 	mov	#0,	r15	;#0x0000
    c014:	0f 93       	tst	r15		
    c016:	08 24       	jz	$+18     	;abs 0xc028
    c018:	92 42 08 02 	mov	&0x0208,&0x0120	
    c01c:	20 01 
    c01e:	2f 83       	decd	r15		
    c020:	9f 4f 74 c7 	mov	-14476(r15),512(r15);0xc774(r15), 0x0200(r15)
    c024:	00 02 
    c026:	f8 23       	jnz	$-14     	;abs 0xc018

0000c028 <__do_clear_bss>:
    c028:	3f 40 08 00 	mov	#8,	r15	;#0x0008
    c02c:	0f 93       	tst	r15		
    c02e:	07 24       	jz	$+16     	;abs 0xc03e
    c030:	92 42 08 02 	mov	&0x0208,&0x0120	
    c034:	20 01 
    c036:	1f 83       	dec	r15		
    c038:	cf 43 00 02 	mov.b	#0,	512(r15);r3 As==00, 0x0200(r15)
    c03c:	f9 23       	jnz	$-12     	;abs 0xc030

0000c03e <main>:
    c03e:	30 12 2e c7 	push	#-14546	;#0xc72e
    c042:	b0 12 28 c3 	call	#0xc328	
    c046:	21 53       	incd	r1		
    c048:	b2 40 80 5a 	mov	#23168,	&0x0120	;#0x5a80
    c04c:	20 01 
    c04e:	5f 42 ff 10 	mov.b	&0x10ff,r15	
    c052:	c2 4f 57 00 	mov.b	r15,	&0x0057	
    c056:	5f 42 fe 10 	mov.b	&0x10fe,r15	
    c05a:	c2 4f 56 00 	mov.b	r15,	&0x0056	
    c05e:	2f 43       	mov	#2,	r15	;r3 As==10
    c060:	b0 12 1c c6 	call	#0xc61c	
    c064:	82 4f 04 02 	mov	r15,	&0x0204	
    c068:	2f 42       	mov	#4,	r15	;r2 As==10
    c06a:	b0 12 1c c6 	call	#0xc61c	
    c06e:	82 4f 00 02 	mov	r15,	&0x0200	
    c072:	1f 42 00 02 	mov	&0x0200,r15	
    c076:	8f 43 00 00 	mov	#0,	0(r15)	;r3 As==00, 0x0000(r15)
    c07a:	1f 42 00 02 	mov	&0x0200,r15	
    c07e:	1e 42 02 02 	mov	&0x0202,r14	
    c082:	8f 4e 02 00 	mov	r14,	2(r15)	;0x0002(r15)
    c086:	f2 40 50 00 	mov.b	#80,	&0x0022	;#0x0050
    c08a:	22 00 
    c08c:	f2 42 27 00 	mov.b	#8,	&0x0027	;r2 As==11
    c090:	5f 42 21 00 	mov.b	&0x0021,r15	
    c094:	7f d2       	bis.b	#8,	r15	;r2 As==11
    c096:	c2 4f 21 00 	mov.b	r15,	&0x0021	
    c09a:	5f 42 25 00 	mov.b	&0x0025,r15	
    c09e:	7f d2       	bis.b	#8,	r15	;r2 As==11
    c0a0:	c2 4f 25 00 	mov.b	r15,	&0x0025	
    c0a4:	5f 42 24 00 	mov.b	&0x0024,r15	
    c0a8:	7f d2       	bis.b	#8,	r15	;r2 As==11
    c0aa:	c2 4f 24 00 	mov.b	r15,	&0x0024	
    c0ae:	5f 42 23 00 	mov.b	&0x0023,r15	
    c0b2:	7f f0 f7 ff 	and.b	#-9,	r15	;#0xfff7
    c0b6:	c2 4f 23 00 	mov.b	r15,	&0x0023	
    c0ba:	32 d0 18 00 	bis	#24,	r2	;#0x0018
    c0be:	32 d2       	eint			
    c0c0:	30 12 34 c7 	push	#-14540	;#0xc734
    c0c4:	b0 12 28 c3 	call	#0xc328	
    c0c8:	21 53       	incd	r1		
    c0ca:	b2 40 d0 02 	mov	#720,	&0x0160	;#0x02d0
    c0ce:	60 01 
    c0d0:	1f 42 04 02 	mov	&0x0204,r15	
    c0d4:	0e 4f       	mov	r15,	r14	
    c0d6:	2f 42       	mov	#4,	r15	;r2 As==10
    c0d8:	b0 12 fa c0 	call	#0xc0fa	
    c0dc:	b2 40 80 96 	mov	#-27008,&0x0172	;#0x9680
    c0e0:	72 01 
    c0e2:	f2 40 40 00 	mov.b	#64,	&0x0026	;#0x0040
    c0e6:	26 00 
    c0e8:	b2 40 80 00 	mov	#128,	&0x0164	;#0x0080
    c0ec:	64 01 
    c0ee:	e8 3f       	jmp	$-46     	;abs 0xc0c0

0000c0f0 <__stop_progExec__>:
    c0f0:	32 d0 f0 00 	bis	#240,	r2	;#0x00f0
    c0f4:	fd 3f       	jmp	$-4      	;abs 0xc0f0

0000c0f6 <__ctors_end>:
    c0f6:	30 40 2c c7 	br	#0xc72c	

0000c0fa <initialize_dtc>:
    c0fa:	21 82       	sub	#4,	r1	;r2 As==10
    c0fc:	81 4f 00 00 	mov	r15,	0(r1)	;0x0000(r1)
    c100:	81 4e 02 00 	mov	r14,	2(r1)	;0x0002(r1)
    c104:	1f 42 b0 01 	mov	&0x01b0,r15	
    c108:	3f f0 fd ff 	and	#-3,	r15	;#0xfffd
    c10c:	82 4f b0 01 	mov	r15,	&0x01b0	
    c110:	b2 40 10 00 	mov	#16,	&0x01b0	;#0x0010
    c114:	b0 01 
    c116:	03 43       	nop			
    c118:	1f 42 b2 01 	mov	&0x01b2,r15	
    c11c:	1f f3       	and	#1,	r15	;r3 As==01
    c11e:	4f 4f       	mov.b	r15,	r15	
    c120:	4f 93       	tst.b	r15		
    c122:	fa 23       	jnz	$-10     	;abs 0xc118
    c124:	e2 42 48 00 	mov.b	#4,	&0x0048	;r2 As==10
    c128:	d2 43 49 00 	mov.b	#1,	&0x0049	;r3 As==01
    c12c:	1f 41 02 00 	mov	2(r1),	r15	;0x0002(r1)
    c130:	82 4f bc 01 	mov	r15,	&0x01bc	
    c134:	1f 42 b0 01 	mov	&0x01b0,r15	
    c138:	3f d0 a0 18 	bis	#6304,	r15	;#0x18a0
    c13c:	82 4f b0 01 	mov	r15,	&0x01b0	
    c140:	2f 41       	mov	@r1,	r15	
    c142:	3f d0 fc 00 	bis	#252,	r15	;#0x00fc
    c146:	82 4f b2 01 	mov	r15,	&0x01b2	
    c14a:	2f 41       	mov	@r1,	r15	
    c14c:	8f 10       	swpb	r15		
    c14e:	4f 4f       	mov.b	r15,	r15	
    c150:	12 c3       	clrc			
    c152:	0f 10       	rrc	r15		
    c154:	12 c3       	clrc			
    c156:	0f 10       	rrc	r15		
    c158:	12 c3       	clrc			
    c15a:	0f 10       	rrc	r15		
    c15c:	12 c3       	clrc			
    c15e:	0f 10       	rrc	r15		
    c160:	0e 4f       	mov	r15,	r14	
    c162:	1f 43       	mov	#1,	r15	;r3 As==01
    c164:	4e 4e       	mov.b	r14,	r14	
    c166:	7e f0 0f 00 	and.b	#15,	r14	;#0x000f
    c16a:	4e 93       	tst.b	r14		
    c16c:	04 24       	jz	$+10     	;abs 0xc176
    c16e:	0f 5f       	rla	r15		
    c170:	7e 53       	add.b	#-1,	r14	;r3 As==11
    c172:	4e 93       	tst.b	r14		
    c174:	fc 23       	jnz	$-6      	;abs 0xc16e
    c176:	4f 4f       	mov.b	r15,	r15	
    c178:	c2 4f 4a 00 	mov.b	r15,	&0x004a	
    c17c:	1f 42 b0 01 	mov	&0x01b0,r15	
    c180:	2f d3       	bis	#2,	r15	;r3 As==10
    c182:	82 4f b0 01 	mov	r15,	&0x01b0	
    c186:	1f 42 b0 01 	mov	&0x01b0,r15	
    c18a:	1f d3       	bis	#1,	r15	;r3 As==01
    c18c:	82 4f b0 01 	mov	r15,	&0x01b0	
    c190:	21 52       	add	#4,	r1	;r2 As==10
    c192:	30 41       	ret			

0000c194 <timer>:
    c194:	00 13       	reti			

0000c196 <button>:
    c196:	0f 12       	push	r15		
    c198:	0e 12       	push	r14		
    c19a:	0d 12       	push	r13		
    c19c:	0c 12       	push	r12		
    c19e:	21 83       	decd	r1		
    c1a0:	1f 42 04 02 	mov	&0x0204,r15	
    c1a4:	0e 4f       	mov	r15,	r14	
    c1a6:	2f 42       	mov	#4,	r15	;r2 As==10
    c1a8:	b0 12 fa c0 	call	#0xc0fa	
    c1ac:	2f 42       	mov	#4,	r15	;r2 As==10
    c1ae:	b0 12 1c c6 	call	#0xc61c	
    c1b2:	81 4f 00 00 	mov	r15,	0(r1)	;0x0000(r1)
    c1b6:	1f 42 04 02 	mov	&0x0204,r15	
    c1ba:	0e 4f       	mov	r15,	r14	
    c1bc:	2f 41       	mov	@r1,	r15	
    c1be:	8f 4e 00 00 	mov	r14,	0(r15)	;0x0000(r15)
    c1c2:	2f 41       	mov	@r1,	r15	
    c1c4:	8f 43 02 00 	mov	#0,	2(r15)	;r3 As==00, 0x0002(r15)
    c1c8:	1f 42 02 02 	mov	&0x0202,r15	
    c1cc:	af 41 02 00 	mov	@r1,	2(r15)	;0x0002(r15)
    c1d0:	1f 42 02 02 	mov	&0x0202,r15	
    c1d4:	1f 4f 02 00 	mov	2(r15),	r15	;0x0002(r15)
    c1d8:	82 4f 02 02 	mov	r15,	&0x0202	
    c1dc:	21 53       	incd	r1		
    c1de:	3c 41       	pop	r12		
    c1e0:	3d 41       	pop	r13		
    c1e2:	3e 41       	pop	r14		
    c1e4:	3f 41       	pop	r15		
    c1e6:	00 13       	reti			

0000c1e8 <_xtoa>:
    c1e8:	0b 12       	push	r11		
    c1ea:	0a 12       	push	r10		
    c1ec:	09 12       	push	r9		
    c1ee:	08 12       	push	r8		
    c1f0:	07 12       	push	r7		
    c1f2:	0a 4e       	mov	r14,	r10	
    c1f4:	0b 4f       	mov	r15,	r11	
    c1f6:	07 4d       	mov	r13,	r7	
    c1f8:	0e 93       	tst	r14		
    c1fa:	04 20       	jnz	$+10     	;abs 0xc204
    c1fc:	0b 93       	tst	r11		
    c1fe:	1f 24       	jz	$+64     	;abs 0xc23e
    c200:	01 3c       	jmp	$+4      	;abs 0xc204
    c202:	27 52       	add	#4,	r7	;r2 As==10
    c204:	1b 97 02 00 	cmp	2(r7),	r11	;0x0002(r7)
    c208:	fc 2b       	jnc	$-6      	;abs 0xc202
    c20a:	02 20       	jnz	$+6      	;abs 0xc210
    c20c:	2a 97       	cmp	@r7,	r10	
    c20e:	f9 2b       	jnc	$-12     	;abs 0xc202
    c210:	38 47       	mov	@r7+,	r8	
    c212:	39 47       	mov	@r7+,	r9	
    c214:	7f 40 30 00 	mov.b	#48,	r15	;#0x0030
    c218:	03 3c       	jmp	$+8      	;abs 0xc220
    c21a:	5f 53       	inc.b	r15		
    c21c:	0a 88       	sub	r8,	r10	
    c21e:	0b 79       	subc	r9,	r11	
    c220:	0b 99       	cmp	r9,	r11	
    c222:	04 28       	jnc	$+10     	;abs 0xc22c
    c224:	09 9b       	cmp	r11,	r9	
    c226:	f9 2b       	jnc	$-12     	;abs 0xc21a
    c228:	0a 98       	cmp	r8,	r10	
    c22a:	f7 2f       	jc	$-16     	;abs 0xc21a
    c22c:	b0 12 52 c4 	call	#0xc452	
    c230:	18 f3       	and	#1,	r8	;r3 As==01
    c232:	09 f3       	and	#0,	r9	;r3 As==00
    c234:	08 93       	tst	r8		
    c236:	07 20       	jnz	$+16     	;abs 0xc246
    c238:	09 93       	tst	r9		
    c23a:	ea 27       	jz	$-42     	;abs 0xc210
    c23c:	04 3c       	jmp	$+10     	;abs 0xc246
    c23e:	7f 40 30 00 	mov.b	#48,	r15	;#0x0030
    c242:	b0 12 52 c4 	call	#0xc452	
    c246:	37 41       	pop	r7		
    c248:	38 41       	pop	r8		
    c24a:	39 41       	pop	r9		
    c24c:	3a 41       	pop	r10		
    c24e:	3b 41       	pop	r11		
    c250:	30 41       	ret			

0000c252 <_puth>:
    c252:	3f f0 0f 00 	and	#15,	r15	;#0x000f
    c256:	5f 4f 64 c7 	mov.b	-14492(r15),r15	;0xc764(r15)
    c25a:	b0 12 52 c4 	call	#0xc452	
    c25e:	30 41       	ret			

0000c260 <cio_print>:
    c260:	0b 12       	push	r11		
    c262:	0b 4f       	mov	r15,	r11	
    c264:	02 3c       	jmp	$+6      	;abs 0xc26a
    c266:	b0 12 52 c4 	call	#0xc452	
    c26a:	7f 4b       	mov.b	@r11+,	r15	
    c26c:	4f 93       	tst.b	r15		
    c26e:	fb 23       	jnz	$-8      	;abs 0xc266
    c270:	3b 41       	pop	r11		
    c272:	30 41       	ret			

0000c274 <cio_printi>:
    c274:	0b 12       	push	r11		
    c276:	0a 12       	push	r10		
    c278:	09 12       	push	r9		
    c27a:	31 50 e0 ff 	add	#-32,	r1	;#0xffe0
    c27e:	0b 4f       	mov	r15,	r11	
    c280:	0f 93       	tst	r15		
    c282:	06 24       	jz	$+14     	;abs 0xc290
    c284:	09 41       	mov	r1,	r9	
    c286:	39 50 1e 00 	add	#30,	r9	;#0x001e
    c28a:	3a 40 0f 00 	mov	#15,	r10	;#0x000f
    c28e:	18 3c       	jmp	$+50     	;abs 0xc2c0
    c290:	7f 40 30 00 	mov.b	#48,	r15	;#0x0030
    c294:	b0 12 52 c4 	call	#0xc452	
    c298:	24 3c       	jmp	$+74     	;abs 0xc2e2
    c29a:	3e 40 0a 00 	mov	#10,	r14	;#0x000a
    c29e:	0f 4b       	mov	r11,	r15	
    c2a0:	b0 12 f2 c5 	call	#0xc5f2	
    c2a4:	3f 50 30 00 	add	#48,	r15	;#0x0030
    c2a8:	89 4f 00 00 	mov	r15,	0(r9)	;0x0000(r9)
    c2ac:	3e 40 0a 00 	mov	#10,	r14	;#0x000a
    c2b0:	0f 4b       	mov	r11,	r15	
    c2b2:	b0 12 c0 c5 	call	#0xc5c0	
    c2b6:	0b 4f       	mov	r15,	r11	
    c2b8:	3a 53       	add	#-1,	r10	;r3 As==11
    c2ba:	29 83       	decd	r9		
    c2bc:	0a 93       	tst	r10		
    c2be:	02 24       	jz	$+6      	;abs 0xc2c4
    c2c0:	1b 93       	cmp	#1,	r11	;r3 As==01
    c2c2:	eb 37       	jge	$-40     	;abs 0xc29a
    c2c4:	09 4a       	mov	r10,	r9	
    c2c6:	0b 43       	clr	r11		
    c2c8:	07 3c       	jmp	$+16     	;abs 0xc2d8
    c2ca:	0f 4a       	mov	r10,	r15	
    c2cc:	0f 5f       	rla	r15		
    c2ce:	0f 51       	add	r1,	r15	
    c2d0:	0f 5b       	add	r11,	r15	
    c2d2:	6f 4f       	mov.b	@r15,	r15	
    c2d4:	b0 12 52 c4 	call	#0xc452	
    c2d8:	19 53       	inc	r9		
    c2da:	2b 53       	incd	r11		
    c2dc:	39 90 10 00 	cmp	#16,	r9	;#0x0010
    c2e0:	f4 23       	jnz	$-22     	;abs 0xc2ca
    c2e2:	31 50 20 00 	add	#32,	r1	;#0x0020
    c2e6:	39 41       	pop	r9		
    c2e8:	3a 41       	pop	r10		
    c2ea:	3b 41       	pop	r11		
    c2ec:	30 41       	ret			

0000c2ee <cio_printb>:
    c2ee:	0b 12       	push	r11		
    c2f0:	0a 12       	push	r10		
    c2f2:	0a 4f       	mov	r15,	r10	
    c2f4:	0b 4e       	mov	r14,	r11	
    c2f6:	12 3c       	jmp	$+38     	;abs 0xc31c
    c2f8:	0d 4a       	mov	r10,	r13	
    c2fa:	4e 4b       	mov.b	r11,	r14	
    c2fc:	7e f0 0f 00 	and.b	#15,	r14	;#0x000f
    c300:	4e 93       	tst.b	r14		
    c302:	03 24       	jz	$+8      	;abs 0xc30a
    c304:	0d 11       	rra	r13		
    c306:	7e 53       	add.b	#-1,	r14	;r3 As==11
    c308:	fb 3f       	jmp	$-8      	;abs 0xc300
    c30a:	1d f3       	and	#1,	r13	;r3 As==01
    c30c:	03 24       	jz	$+8      	;abs 0xc314
    c30e:	7f 40 31 00 	mov.b	#49,	r15	;#0x0031
    c312:	02 3c       	jmp	$+6      	;abs 0xc318
    c314:	7f 40 30 00 	mov.b	#48,	r15	;#0x0030
    c318:	b0 12 52 c4 	call	#0xc452	
    c31c:	3b 53       	add	#-1,	r11	;r3 As==11
    c31e:	0b 93       	tst	r11		
    c320:	eb 37       	jge	$-40     	;abs 0xc2f8
    c322:	3a 41       	pop	r10		
    c324:	3b 41       	pop	r11		
    c326:	30 41       	ret			

0000c328 <cio_printf>:
    c328:	0b 12       	push	r11		
    c32a:	0a 12       	push	r10		
    c32c:	09 12       	push	r9		
    c32e:	08 12       	push	r8		
    c330:	0b 41       	mov	r1,	r11	
    c332:	3b 50 0a 00 	add	#10,	r11	;#0x000a
    c336:	3a 4b       	mov	@r11+,	r10	
    c338:	84 3c       	jmp	$+266    	;abs 0xc442
    c33a:	7f 90 25 00 	cmp.b	#37,	r15	;#0x0025
    c33e:	7e 20       	jnz	$+254    	;abs 0xc43c
    c340:	5f 4a 01 00 	mov.b	1(r10),	r15	;0x0001(r10)
    c344:	2a 53       	incd	r10		
    c346:	7f 90 6e 00 	cmp.b	#110,	r15	;#0x006e
    c34a:	3e 24       	jz	$+126    	;abs 0xc3c8
    c34c:	7f 90 6f 00 	cmp.b	#111,	r15	;#0x006f
    c350:	10 34       	jge	$+34     	;abs 0xc372
    c352:	7f 90 69 00 	cmp.b	#105,	r15	;#0x0069
    c356:	23 24       	jz	$+72     	;abs 0xc39e
    c358:	7f 90 6a 00 	cmp.b	#106,	r15	;#0x006a
    c35c:	06 34       	jge	$+14     	;abs 0xc36a
    c35e:	4f 93       	tst.b	r15		
    c360:	73 24       	jz	$+232    	;abs 0xc448
    c362:	7f 90 63 00 	cmp.b	#99,	r15	;#0x0063
    c366:	6b 20       	jnz	$+216    	;abs 0xc43e
    c368:	13 3c       	jmp	$+40     	;abs 0xc390
    c36a:	7f 90 6c 00 	cmp.b	#108,	r15	;#0x006c
    c36e:	67 20       	jnz	$+208    	;abs 0xc43e
    c370:	2b 3c       	jmp	$+88     	;abs 0xc3c8
    c372:	7f 90 75 00 	cmp.b	#117,	r15	;#0x0075
    c376:	13 24       	jz	$+40     	;abs 0xc39e
    c378:	7f 90 78 00 	cmp.b	#120,	r15	;#0x0078
    c37c:	43 24       	jz	$+136    	;abs 0xc404
    c37e:	7f 90 73 00 	cmp.b	#115,	r15	;#0x0073
    c382:	5d 20       	jnz	$+188    	;abs 0xc43e
    c384:	09 4b       	mov	r11,	r9	
    c386:	29 53       	incd	r9		
    c388:	2f 4b       	mov	@r11,	r15	
    c38a:	b0 12 60 c2 	call	#0xc260	
    c38e:	05 3c       	jmp	$+12     	;abs 0xc39a
    c390:	09 4b       	mov	r11,	r9	
    c392:	29 53       	incd	r9		
    c394:	6f 4b       	mov.b	@r11,	r15	
    c396:	b0 12 52 c4 	call	#0xc452	
    c39a:	0b 49       	mov	r9,	r11	
    c39c:	52 3c       	jmp	$+166    	;abs 0xc442
    c39e:	09 4b       	mov	r11,	r9	
    c3a0:	29 53       	incd	r9		
    c3a2:	2b 4b       	mov	@r11,	r11	
    c3a4:	7f 90 69 00 	cmp.b	#105,	r15	;#0x0069
    c3a8:	08 20       	jnz	$+18     	;abs 0xc3ba
    c3aa:	0b 93       	tst	r11		
    c3ac:	06 34       	jge	$+14     	;abs 0xc3ba
    c3ae:	3b e3       	inv	r11		
    c3b0:	1b 53       	inc	r11		
    c3b2:	7f 40 2d 00 	mov.b	#45,	r15	;#0x002d
    c3b6:	b0 12 52 c4 	call	#0xc452	
    c3ba:	3d 40 50 c7 	mov	#-14512,r13	;#0xc750
    c3be:	0e 4b       	mov	r11,	r14	
    c3c0:	0f 43       	clr	r15		
    c3c2:	b0 12 e8 c1 	call	#0xc1e8	
    c3c6:	e9 3f       	jmp	$-44     	;abs 0xc39a
    c3c8:	08 4b       	mov	r11,	r8	
    c3ca:	28 52       	add	#4,	r8	;r2 As==10
    c3cc:	29 4b       	mov	@r11,	r9	
    c3ce:	1b 4b 02 00 	mov	2(r11),	r11	;0x0002(r11)
    c3d2:	7f 90 6c 00 	cmp.b	#108,	r15	;#0x006c
    c3d6:	0e 20       	jnz	$+30     	;abs 0xc3f4
    c3d8:	0b 93       	tst	r11		
    c3da:	0c 34       	jge	$+26     	;abs 0xc3f4
    c3dc:	0c 49       	mov	r9,	r12	
    c3de:	0d 4b       	mov	r11,	r13	
    c3e0:	3c e3       	inv	r12		
    c3e2:	3d e3       	inv	r13		
    c3e4:	1c 53       	inc	r12		
    c3e6:	0d 63       	adc	r13		
    c3e8:	09 4c       	mov	r12,	r9	
    c3ea:	0b 4d       	mov	r13,	r11	
    c3ec:	7f 40 2d 00 	mov.b	#45,	r15	;#0x002d
    c3f0:	b0 12 52 c4 	call	#0xc452	
    c3f4:	3d 40 3c c7 	mov	#-14532,r13	;#0xc73c
    c3f8:	0e 49       	mov	r9,	r14	
    c3fa:	0f 4b       	mov	r11,	r15	
    c3fc:	b0 12 e8 c1 	call	#0xc1e8	
    c400:	0b 48       	mov	r8,	r11	
    c402:	1f 3c       	jmp	$+64     	;abs 0xc442
    c404:	09 4b       	mov	r11,	r9	
    c406:	29 53       	incd	r9		
    c408:	2b 4b       	mov	@r11,	r11	
    c40a:	0f 4b       	mov	r11,	r15	
    c40c:	8f 10       	swpb	r15		
    c40e:	8f 11       	sxt	r15		
    c410:	0f 11       	rra	r15		
    c412:	0f 11       	rra	r15		
    c414:	0f 11       	rra	r15		
    c416:	0f 11       	rra	r15		
    c418:	b0 12 52 c2 	call	#0xc252	
    c41c:	0f 4b       	mov	r11,	r15	
    c41e:	8f 10       	swpb	r15		
    c420:	8f 11       	sxt	r15		
    c422:	b0 12 52 c2 	call	#0xc252	
    c426:	0f 4b       	mov	r11,	r15	
    c428:	0f 11       	rra	r15		
    c42a:	0f 11       	rra	r15		
    c42c:	0f 11       	rra	r15		
    c42e:	0f 11       	rra	r15		
    c430:	b0 12 52 c2 	call	#0xc252	
    c434:	0f 4b       	mov	r11,	r15	
    c436:	b0 12 52 c2 	call	#0xc252	
    c43a:	af 3f       	jmp	$-160    	;abs 0xc39a
    c43c:	1a 53       	inc	r10		
    c43e:	b0 12 52 c4 	call	#0xc452	
    c442:	6f 4a       	mov.b	@r10,	r15	
    c444:	4f 93       	tst.b	r15		
    c446:	79 23       	jnz	$-268    	;abs 0xc33a
    c448:	38 41       	pop	r8		
    c44a:	39 41       	pop	r9		
    c44c:	3a 41       	pop	r10		
    c44e:	3b 41       	pop	r11		
    c450:	30 41       	ret			

0000c452 <cio_printc>:
    c452:	b0 12 9e c5 	call	#0xc59e	
    c456:	30 41       	ret			

0000c458 <cio_getc>:
    c458:	b0 12 b2 c5 	call	#0xc5b2	
    c45c:	30 41       	ret			

0000c45e <serial_clk_init>:
    c45e:	f2 d0 06 00 	bis.b	#6,	&0x0026	;#0x0006
    c462:	26 00 
    c464:	f2 d0 06 00 	bis.b	#6,	&0x0041	;#0x0006
    c468:	41 00 
    c46a:	f2 d0 80 ff 	bis.b	#-128,	&0x0061	;#0xff80
    c46e:	61 00 
    c470:	3e 90 00 12 	cmp	#4608,	r14	;#0x1200
    c474:	04 20       	jnz	$+10     	;abs 0xc47e
    c476:	3f 90 7a 00 	cmp	#122,	r15	;#0x007a
    c47a:	67 20       	jnz	$+208    	;abs 0xc54a
    c47c:	07 3c       	jmp	$+16     	;abs 0xc48c
    c47e:	3e 90 00 24 	cmp	#9216,	r14	;#0x2400
    c482:	63 20       	jnz	$+200    	;abs 0xc54a
    c484:	3f 90 f4 00 	cmp	#244,	r15	;#0x00f4
    c488:	60 20       	jnz	$+194    	;abs 0xc54a
    c48a:	2a 3c       	jmp	$+86     	;abs 0xc4e0
    c48c:	3d 90 00 84 	cmp	#-31744,r13	;#0x8400
    c490:	21 24       	jz	$+68     	;abs 0xc4d4
    c492:	3d 90 01 84 	cmp	#-31743,r13	;#0x8401
    c496:	07 2c       	jc	$+16     	;abs 0xc4a6
    c498:	3d 90 80 25 	cmp	#9600,	r13	;#0x2580
    c49c:	38 24       	jz	$+114    	;abs 0xc50e
    c49e:	3d 90 00 4b 	cmp	#19200,	r13	;#0x4b00
    c4a2:	35 20       	jnz	$+108    	;abs 0xc50e
    c4a4:	0a 3c       	jmp	$+22     	;abs 0xc4ba
    c4a6:	3d 90 00 c2 	cmp	#-15872,r13	;#0xc200
    c4aa:	42 24       	jz	$+134    	;abs 0xc530
    c4ac:	3d 90 00 e1 	cmp	#-7936,	r13	;#0xe100
    c4b0:	39 24       	jz	$+116    	;abs 0xc524
    c4b2:	3d 90 00 96 	cmp	#-27136,r13	;#0x9600
    c4b6:	2b 20       	jnz	$+88     	;abs 0xc50e
    c4b8:	07 3c       	jmp	$+16     	;abs 0xc4c8
    c4ba:	f2 40 1a 00 	mov.b	#26,	&0x0062	;#0x001a
    c4be:	62 00 
    c4c0:	f2 40 11 00 	mov.b	#17,	&0x0064	;#0x0011
    c4c4:	64 00 
    c4c6:	5a 3c       	jmp	$+182    	;abs 0xc57c
    c4c8:	f2 40 0d 00 	mov.b	#13,	&0x0062	;#0x000d
    c4cc:	62 00 
    c4ce:	d2 43 64 00 	mov.b	#1,	&0x0064	;r3 As==01
    c4d2:	54 3c       	jmp	$+170    	;abs 0xc57c
    c4d4:	e2 43 62 00 	mov.b	#2,	&0x0062	;r3 As==10
    c4d8:	f2 40 27 00 	mov.b	#39,	&0x0064	;#0x0027
    c4dc:	64 00 
    c4de:	4e 3c       	jmp	$+158    	;abs 0xc57c
    c4e0:	3d 90 00 84 	cmp	#-31744,r13	;#0x8400
    c4e4:	25 24       	jz	$+76     	;abs 0xc530
    c4e6:	3d 90 01 84 	cmp	#-31743,r13	;#0x8401
    c4ea:	07 2c       	jc	$+16     	;abs 0xc4fa
    c4ec:	3d 90 80 25 	cmp	#9600,	r13	;#0x2580
    c4f0:	25 24       	jz	$+76     	;abs 0xc53c
    c4f2:	3d 90 00 4b 	cmp	#19200,	r13	;#0x4b00
    c4f6:	22 20       	jnz	$+70     	;abs 0xc53c
    c4f8:	0a 3c       	jmp	$+22     	;abs 0xc50e
    c4fa:	3d 90 00 c2 	cmp	#-15872,r13	;#0xc200
    c4fe:	12 24       	jz	$+38     	;abs 0xc524
    c500:	3d 90 00 e1 	cmp	#-7936,	r13	;#0xe100
    c504:	08 24       	jz	$+18     	;abs 0xc516
    c506:	3d 90 00 96 	cmp	#-27136,r13	;#0x9600
    c50a:	18 20       	jnz	$+50     	;abs 0xc53c
    c50c:	d6 3f       	jmp	$-82     	;abs 0xc4ba
    c50e:	f2 40 34 00 	mov.b	#52,	&0x0062	;#0x0034
    c512:	62 00 
    c514:	d5 3f       	jmp	$-84     	;abs 0xc4c0
    c516:	f2 40 11 00 	mov.b	#17,	&0x0062	;#0x0011
    c51a:	62 00 
    c51c:	f2 40 61 00 	mov.b	#97,	&0x0064	;#0x0061
    c520:	64 00 
    c522:	2c 3c       	jmp	$+90     	;abs 0xc57c
    c524:	f2 42 62 00 	mov.b	#8,	&0x0062	;r2 As==11
    c528:	f2 40 b1 ff 	mov.b	#-79,	&0x0064	;#0xffb1
    c52c:	64 00 
    c52e:	26 3c       	jmp	$+78     	;abs 0xc57c
    c530:	e2 42 62 00 	mov.b	#4,	&0x0062	;r2 As==10
    c534:	f2 40 3b 00 	mov.b	#59,	&0x0064	;#0x003b
    c538:	64 00 
    c53a:	20 3c       	jmp	$+66     	;abs 0xc57c
    c53c:	f2 40 68 00 	mov.b	#104,	&0x0062	;#0x0068
    c540:	62 00 
    c542:	f2 40 31 00 	mov.b	#49,	&0x0064	;#0x0031
    c546:	64 00 
    c548:	19 3c       	jmp	$+52     	;abs 0xc57c
    c54a:	3d 90 00 4b 	cmp	#19200,	r13	;#0x4b00
    c54e:	0a 24       	jz	$+22     	;abs 0xc564
    c550:	3d 90 00 e1 	cmp	#-7936,	r13	;#0xe100
    c554:	0e 24       	jz	$+30     	;abs 0xc572
    c556:	f2 40 06 00 	mov.b	#6,	&0x0062	;#0x0006
    c55a:	62 00 
    c55c:	f2 40 81 ff 	mov.b	#-127,	&0x0064	;#0xff81
    c560:	64 00 
    c562:	0c 3c       	jmp	$+26     	;abs 0xc57c
    c564:	f2 40 03 00 	mov.b	#3,	&0x0062	;#0x0003
    c568:	62 00 
    c56a:	f2 40 41 00 	mov.b	#65,	&0x0064	;#0x0041
    c56e:	64 00 
    c570:	05 3c       	jmp	$+12     	;abs 0xc57c
    c572:	d2 43 62 00 	mov.b	#1,	&0x0062	;r3 As==01
    c576:	f2 40 0f 00 	mov.b	#15,	&0x0064	;#0x000f
    c57a:	64 00 
    c57c:	c2 43 63 00 	mov.b	#0,	&0x0063	;r3 As==00
    c580:	f2 f0 fe ff 	and.b	#-2,	&0x0061	;#0xfffe
    c584:	61 00 
    c586:	30 41       	ret			

0000c588 <serial_init>:
    c588:	0d 4f       	mov	r15,	r13	
    c58a:	3e 40 40 42 	mov	#16960,	r14	;#0x4240
    c58e:	3f 40 0f 00 	mov	#15,	r15	;#0x000f
    c592:	b0 12 5e c4 	call	#0xc45e	
    c596:	30 41       	ret			

0000c598 <serial_send>:
    c598:	c2 4f 67 00 	mov.b	r15,	&0x0067	
    c59c:	30 41       	ret			

0000c59e <serial_send_blocking>:
    c59e:	5e 42 03 00 	mov.b	&0x0003,r14	
    c5a2:	2e f3       	and	#2,	r14	;r3 As==10
    c5a4:	fc 27       	jz	$-6      	;abs 0xc59e
    c5a6:	c2 4f 67 00 	mov.b	r15,	&0x0067	
    c5aa:	30 41       	ret			

0000c5ac <serial_recv>:
    c5ac:	5f 42 66 00 	mov.b	&0x0066,r15	
    c5b0:	30 41       	ret			

0000c5b2 <serial_recv_blocking>:
    c5b2:	5f 42 03 00 	mov.b	&0x0003,r15	
    c5b6:	1f f3       	and	#1,	r15	;r3 As==01
    c5b8:	fc 27       	jz	$-6      	;abs 0xc5b2
    c5ba:	5f 42 66 00 	mov.b	&0x0066,r15	
    c5be:	30 41       	ret			

0000c5c0 <__divhi3>:
    c5c0:	0d 43       	clr	r13		
    c5c2:	0f 93       	tst	r15		
    c5c4:	04 34       	jge	$+10     	;abs 0xc5ce
    c5c6:	3d 40 03 00 	mov	#3,	r13	;#0x0003
    c5ca:	3f e3       	inv	r15		
    c5cc:	1f 53       	inc	r15		
    c5ce:	0e 93       	tst	r14		
    c5d0:	03 34       	jge	$+8      	;abs 0xc5d8
    c5d2:	5d e3       	xor.b	#1,	r13	;r3 As==01
    c5d4:	3e e3       	inv	r14		
    c5d6:	1e 53       	inc	r14		
    c5d8:	0d 12       	push	r13		
    c5da:	b0 12 fa c5 	call	#0xc5fa	
    c5de:	3d 41       	pop	r13		
    c5e0:	6d b3       	bit.b	#2,	r13	;r3 As==10
    c5e2:	02 24       	jz	$+6      	;abs 0xc5e8
    c5e4:	3e e3       	inv	r14		
    c5e6:	1e 53       	inc	r14		
    c5e8:	5d b3       	bit.b	#1,	r13	;r3 As==01
    c5ea:	02 24       	jz	$+6      	;abs 0xc5f0
    c5ec:	3f e3       	inv	r15		
    c5ee:	1f 53       	inc	r15		
    c5f0:	30 41       	ret			

0000c5f2 <__modhi3>:
    c5f2:	b0 12 c0 c5 	call	#0xc5c0	
    c5f6:	0f 4e       	mov	r14,	r15	
    c5f8:	30 41       	ret			

0000c5fa <__udivhi3>:
    c5fa:	7c 40 10 00 	mov.b	#16,	r12	;#0x0010
    c5fe:	0d 4e       	mov	r14,	r13	
    c600:	0e 43       	clr	r14		
    c602:	0f 5f       	rla	r15		
    c604:	0e 6e       	rlc	r14		
    c606:	0e 9d       	cmp	r13,	r14	
    c608:	02 28       	jnc	$+6      	;abs 0xc60e
    c60a:	0e 8d       	sub	r13,	r14	
    c60c:	1f d3       	bis	#1,	r15	;r3 As==01
    c60e:	1c 83       	dec	r12		
    c610:	f8 23       	jnz	$-14     	;abs 0xc602
    c612:	30 41       	ret			

0000c614 <__umodhi3>:
    c614:	b0 12 fa c5 	call	#0xc5fa	
    c618:	0f 4e       	mov	r14,	r15	
    c61a:	30 41       	ret			

0000c61c <malloc>:
    c61c:	0b 12       	push	r11		
    c61e:	0a 12       	push	r10		
    c620:	09 12       	push	r9		
    c622:	08 12       	push	r8		
    c624:	07 12       	push	r7		
    c626:	06 12       	push	r6		
    c628:	05 12       	push	r5		
    c62a:	04 12       	push	r4		
    c62c:	3d 40 0b 02 	mov	#523,	r13	;#0x020b
    c630:	3d f0 fe ff 	and	#-2,	r13	;#0xfffe
    c634:	c2 93 06 02 	tst.b	&0x0206	
    c638:	05 20       	jnz	$+12     	;abs 0xc644
    c63a:	d2 43 06 02 	mov.b	#1,	&0x0206	;r3 As==01
    c63e:	bd 40 fe ff 	mov	#-2,	0(r13)	;#0xfffe, 0x0000(r13)
    c642:	00 00 
    c644:	0a 41       	mov	r1,	r10	
    c646:	3a 50 d8 ff 	add	#-40,	r10	;#0xffd8
    c64a:	0c 4f       	mov	r15,	r12	
    c64c:	1c 53       	inc	r12		
    c64e:	12 c3       	clrc			
    c650:	0c 10       	rrc	r12		
    c652:	03 3c       	jmp	$+8      	;abs 0xc65a
    c654:	1e 53       	inc	r14		
    c656:	0e 5e       	rla	r14		
    c658:	0d 5e       	add	r14,	r13	
    c65a:	2f 4d       	mov	@r13,	r15	
    c65c:	0e 4f       	mov	r15,	r14	
    c65e:	12 c3       	clrc			
    c660:	0e 10       	rrc	r14		
    c662:	55 43       	mov.b	#1,	r5	;r3 As==01
    c664:	3e 90 ff 7f 	cmp	#32767,	r14	;#0x7fff
    c668:	01 24       	jz	$+4      	;abs 0xc66c
    c66a:	45 43       	clr.b	r5		
    c66c:	1f f3       	and	#1,	r15	;r3 As==01
    c66e:	4e 20       	jnz	$+158    	;abs 0xc70c
    c670:	45 93       	tst.b	r5		
    c672:	16 24       	jz	$+46     	;abs 0xc6a0
    c674:	08 4a       	mov	r10,	r8	
    c676:	0e 4a       	mov	r10,	r14	
    c678:	8e 10       	swpb	r14		
    c67a:	8e 11       	sxt	r14		
    c67c:	8e 10       	swpb	r14		
    c67e:	8e 11       	sxt	r14		
    c680:	09 4e       	mov	r14,	r9	
    c682:	06 4d       	mov	r13,	r6	
    c684:	0e 4d       	mov	r13,	r14	
    c686:	8e 10       	swpb	r14		
    c688:	8e 11       	sxt	r14		
    c68a:	8e 10       	swpb	r14		
    c68c:	8e 11       	sxt	r14		
    c68e:	07 4e       	mov	r14,	r7	
    c690:	0e 48       	mov	r8,	r14	
    c692:	0f 49       	mov	r9,	r15	
    c694:	0e 86       	sub	r6,	r14	
    c696:	0f 77       	subc	r7,	r15	
    c698:	0f 11       	rra	r15		
    c69a:	0e 10       	rrc	r14		
    c69c:	3e 53       	add	#-1,	r14	;r3 As==11
    c69e:	18 3c       	jmp	$+50     	;abs 0xc6d0
    c6a0:	04 4e       	mov	r14,	r4	
    c6a2:	14 53       	inc	r4		
    c6a4:	0b 44       	mov	r4,	r11	
    c6a6:	0b 5b       	rla	r11		
    c6a8:	0b 5d       	add	r13,	r11	
    c6aa:	2f 4b       	mov	@r11,	r15	
    c6ac:	1f b3       	bit	#1,	r15	;r3 As==01
    c6ae:	10 20       	jnz	$+34     	;abs 0xc6d0
    c6b0:	0e 4f       	mov	r15,	r14	
    c6b2:	3e f0 fe ff 	and	#-2,	r14	;#0xfffe
    c6b6:	3e 90 fe ff 	cmp	#-2,	r14	;#0xfffe
    c6ba:	05 24       	jz	$+12     	;abs 0xc6c6
    c6bc:	12 c3       	clrc			
    c6be:	0f 10       	rrc	r15		
    c6c0:	0f 54       	add	r4,	r15	
    c6c2:	0f 5f       	rla	r15		
    c6c4:	02 3c       	jmp	$+6      	;abs 0xc6ca
    c6c6:	3f 40 fe ff 	mov	#-2,	r15	;#0xfffe
    c6ca:	8d 4f 00 00 	mov	r15,	0(r13)	;0x0000(r13)
    c6ce:	c5 3f       	jmp	$-116    	;abs 0xc65a
    c6d0:	0e 9c       	cmp	r12,	r14	
    c6d2:	1c 28       	jnc	$+58     	;abs 0xc70c
    c6d4:	0f 4c       	mov	r12,	r15	
    c6d6:	1f 53       	inc	r15		
    c6d8:	0f 5f       	rla	r15		
    c6da:	0f 5d       	add	r13,	r15	
    c6dc:	0a 9f       	cmp	r15,	r10	
    c6de:	18 28       	jnc	$+50     	;abs 0xc710
    c6e0:	45 93       	tst.b	r5		
    c6e2:	04 24       	jz	$+10     	;abs 0xc6ec
    c6e4:	bf 40 fe ff 	mov	#-2,	0(r15)	;#0xfffe, 0x0000(r15)
    c6e8:	00 00 
    c6ea:	09 3c       	jmp	$+20     	;abs 0xc6fe
    c6ec:	0e 9c       	cmp	r12,	r14	
    c6ee:	07 24       	jz	$+16     	;abs 0xc6fe
    c6f0:	0b 4c       	mov	r12,	r11	
    c6f2:	3b e3       	inv	r11		
    c6f4:	0b 5e       	add	r14,	r11	
    c6f6:	8f 4b 00 00 	mov	r11,	0(r15)	;0x0000(r15)
    c6fa:	af 5f 00 00 	add	@r15,	0(r15)	;0x0000(r15)
    c6fe:	0c 5c       	rla	r12		
    c700:	1c d3       	bis	#1,	r12	;r3 As==01
    c702:	8d 4c 00 00 	mov	r12,	0(r13)	;0x0000(r13)
    c706:	0f 4d       	mov	r13,	r15	
    c708:	2f 53       	incd	r15		
    c70a:	03 3c       	jmp	$+8      	;abs 0xc712
    c70c:	45 93       	tst.b	r5		
    c70e:	a2 27       	jz	$-186    	;abs 0xc654
    c710:	0f 43       	clr	r15		
    c712:	34 41       	pop	r4		
    c714:	35 41       	pop	r5		
    c716:	36 41       	pop	r6		
    c718:	37 41       	pop	r7		
    c71a:	38 41       	pop	r8		
    c71c:	39 41       	pop	r9		
    c71e:	3a 41       	pop	r10		
    c720:	3b 41       	pop	r11		
    c722:	30 41       	ret			

0000c724 <free>:
    c724:	bf f0 fe ff 	and	#-2,	-2(r15)	;#0xfffe, 0xfffe(r15)
    c728:	fe ff 
    c72a:	30 41       	ret			

0000c72c <_unexpected_>:
    c72c:	00 13       	reti			

Disassembly of section .rodata:

0000c72e <__data_start+0xc52e>:
    c72e:	54 45 53 54 	mov.b	21587(r5),r4	;0x5453(r5)
    c732:	31 00       	.word	0x0031;	????	
    c734:	54 45 53 54 	mov.b	21587(r5),r4	;0x5453(r5)
    c738:	0a 0d       	.word	0x0d0a;	????	
	...

0000c73c <_dv>:
    c73c:	00 ca       	bic	r10,	r0	
    c73e:	9a 3b       	jl	$-202    	;abs 0xc674
    c740:	00 e1       	xor	r1,	r0	
    c742:	f5 05       	.word	0x05f5;	????	
    c744:	80 96 98 00 	cmp	r6,	152(r0)	;PC rel. 0xc7de
    c748:	40 42       	br	r2		
    c74a:	0f 00       	.word	0x000f;	????	
    c74c:	a0 86 01 00 	sub	@r6,	1(r0)	;PC rel. 0xc74f
    c750:	10 27       	jz	$-478    	;abs 0xc572
    c752:	00 00       	.word	0x0000;	????	
    c754:	e8 03       	.word	0x03e8;	????	
    c756:	00 00       	.word	0x0000;	????	
    c758:	64 00       	.word	0x0064;	????	
    c75a:	00 00       	.word	0x0000;	????	
    c75c:	0a 00       	.word	0x000a;	????	
    c75e:	00 00       	.word	0x0000;	????	
    c760:	01 00       	.word	0x0001;	????	
	...

0000c764 <hex.1308>:
    c764:	30 31       	jn	$+610    	;abs 0xc9c6
    c766:	32 33       	jn	$-410    	;abs 0xc5cc
    c768:	34 35       	jge	$+618    	;abs 0xc9d2
    c76a:	36 37       	jge	$-402    	;abs 0xc5d8
    c76c:	38 39       	jl	$+626    	;abs 0xc9de
    c76e:	41 42       	mov.b	r2,	r1	
    c770:	43 44       	.word	0x4443;	????	Illegal as 2-op instr
    c772:	45 46       	mov.b	r6,	r5	

Disassembly of section .bss:

00000200 <__bss_start>:
	...

00000202 <current>:
	...

00000204 <pointer>:
	...

00000206 <once.1420>:
	...

Disassembly of section .noinit:

00000208 <__wdt_clear_value>:
	...

Disassembly of section .vectors:

0000ffe0 <__ivtbl_16>:
    ffe0:	f6 c0 f6 c0 	bic.b	#-16138,-15978(r6);#0xc0f6, 0xc196(r6)
    ffe4:	96 c1 
    ffe6:	f6 c0 f6 c0 	bic.b	#-16138,-16138(r6);#0xc0f6, 0xc0f6(r6)
    ffea:	f6 c0 
    ffec:	f6 c0 f6 c0 	bic.b	#-16138,-16138(r6);#0xc0f6, 0xc0f6(r6)
    fff0:	f6 c0 
    fff2:	f6 c0 f6 c0 	bic.b	#-16138,-16138(r6);#0xc0f6, 0xc0f6(r6)
    fff6:	f6 c0 
    fff8:	f6 c0 94 c1 	bic.b	#-15980,-16138(r6);#0xc194, 0xc0f6(r6)
    fffc:	f6 c0 
    fffe:	00 c0       	bic	r0,	r0	

Disassembly of section .debug_aranges:

00000000 <.debug_aranges>:
   0:	14 00       	.word	0x0014;	????	
   2:	00 00       	.word	0x0000;	????	
   4:	02 00       	.word	0x0002;	????	
   6:	00 00       	.word	0x0000;	????	
   8:	00 00       	.word	0x0000;	????	
   a:	02 00       	.word	0x0002;	????	
   c:	fa c0 ee 00 	bic.b	#238,	-16322(r10);#0x00ee, 0xc03e(r10)
  10:	3e c0 
  12:	b2 00       	.word	0x00b2;	????	
  14:	00 00       	.word	0x0000;	????	
  16:	00 00       	.word	0x0000;	????	
  18:	10 00       	.word	0x0010;	????	
  1a:	00 00       	.word	0x0000;	????	
  1c:	02 00       	.word	0x0002;	????	
  1e:	e0 02       	.word	0x02e0;	????	
  20:	00 00       	.word	0x0000;	????	
  22:	02 00       	.word	0x0002;	????	
  24:	e8 c1 6a 02 	bic.b	@r1,	618(r8)	;0x026a(r8)
  28:	00 00       	.word	0x0000;	????	
  2a:	00 00       	.word	0x0000;	????	
  2c:	10 00       	.word	0x0010;	????	
  2e:	00 00       	.word	0x0000;	????	
  30:	02 00       	.word	0x0002;	????	
  32:	34 05       	.word	0x0534;	????	
  34:	00 00       	.word	0x0000;	????	
  36:	02 00       	.word	0x0002;	????	
  38:	52 c4 0c 00 	bic.b	12(r4),	r2	;0x000c(r4)
  3c:	00 00       	.word	0x0000;	????	
  3e:	00 00       	.word	0x0000;	????	
  40:	10 00       	.word	0x0010;	????	
  42:	00 00       	.word	0x0000;	????	
  44:	02 00       	.word	0x0002;	????	
  46:	92 05       	.word	0x0592;	????	
  48:	00 00       	.word	0x0000;	????	
  4a:	02 00       	.word	0x0002;	????	
  4c:	5e c4 62 01 	bic.b	354(r4),r14	;0x0162(r4)
  50:	00 00       	.word	0x0000;	????	
  52:	00 00       	.word	0x0000;	????	
  54:	10 00       	.word	0x0010;	????	
  56:	00 00       	.word	0x0000;	????	
  58:	02 00       	.word	0x0002;	????	
  5a:	59 07       	.word	0x0759;	????	
  5c:	00 00       	.word	0x0000;	????	
  5e:	02 00       	.word	0x0002;	????	
  60:	c0 c5 3a 00 	bic.b	r5,	58(r0)	;PC rel. 0x009c
  64:	00 00       	.word	0x0000;	????	
  66:	00 00       	.word	0x0000;	????	
  68:	10 00       	.word	0x0010;	????	
  6a:	00 00       	.word	0x0000;	????	
  6c:	02 00       	.word	0x0002;	????	
  6e:	e3 07       	.word	0x07e3;	????	
  70:	00 00       	.word	0x0000;	????	
  72:	02 00       	.word	0x0002;	????	
  74:	fa c5 22 00 	bic.b	@r5+,	34(r10)	;0x0022(r10)
  78:	00 00       	.word	0x0000;	????	
  7a:	00 00       	.word	0x0000;	????	
  7c:	10 00       	.word	0x0010;	????	
  7e:	00 00       	.word	0x0000;	????	
  80:	02 00       	.word	0x0002;	????	
  82:	6d 08       	.word	0x086d;	????	
  84:	00 00       	.word	0x0000;	????	
  86:	02 00       	.word	0x0002;	????	
  88:	1c c6 10 01 	bic	272(r6),r12	;0x0110(r6)
  8c:	00 00       	.word	0x0000;	????	
  8e:	00 00       	.word	0x0000;	????	
  90:	10 00       	.word	0x0010;	????	
  92:	00 00       	.word	0x0000;	????	
  94:	02 00       	.word	0x0002;	????	
  96:	be 09       	.word	0x09be;	????	
  98:	00 00       	.word	0x0000;	????	
  9a:	02 00       	.word	0x0002;	????	
  9c:	00 c0       	bic	r0,	r0	
  9e:	0c 00       	.word	0x000c;	????	
  a0:	00 00       	.word	0x0000;	????	
  a2:	00 00       	.word	0x0000;	????	
  a4:	10 00       	.word	0x0010;	????	
  a6:	00 00       	.word	0x0000;	????	
  a8:	02 00       	.word	0x0002;	????	
  aa:	2f 0a       	.word	0x0a2f;	????	
  ac:	00 00       	.word	0x0000;	????	
  ae:	02 00       	.word	0x0002;	????	
  b0:	0c c0       	bic	r0,	r12	
  b2:	04 00       	.word	0x0004;	????	
  b4:	00 00       	.word	0x0000;	????	
  b6:	00 00       	.word	0x0000;	????	
  b8:	10 00       	.word	0x0010;	????	
  ba:	00 00       	.word	0x0000;	????	
  bc:	02 00       	.word	0x0002;	????	
  be:	a0 0a       	.word	0x0aa0;	????	
  c0:	00 00       	.word	0x0000;	????	
  c2:	02 00       	.word	0x0002;	????	
  c4:	10 c0 18 00 	bic	24(r0),	r0	;PC rel. 0x00de
  c8:	00 00       	.word	0x0000;	????	
  ca:	00 00       	.word	0x0000;	????	
  cc:	10 00       	.word	0x0010;	????	
  ce:	00 00       	.word	0x0000;	????	
  d0:	02 00       	.word	0x0002;	????	
  d2:	11 0b       	.word	0x0b11;	????	
  d4:	00 00       	.word	0x0000;	????	
  d6:	02 00       	.word	0x0002;	????	
  d8:	28 c0       	bic	@r0,	r8	
  da:	16 00       	.word	0x0016;	????	
  dc:	00 00       	.word	0x0000;	????	
  de:	00 00       	.word	0x0000;	????	
  e0:	10 00       	.word	0x0010;	????	
  e2:	00 00       	.word	0x0000;	????	
  e4:	02 00       	.word	0x0002;	????	
  e6:	82 0b       	.word	0x0b82;	????	
  e8:	00 00       	.word	0x0000;	????	
  ea:	02 00       	.word	0x0002;	????	
  ec:	f0 c0 06 00 	bic.b	#6,	0(r0)	;#0x0006, PC rel. 0x00f0
  f0:	00 00 
  f2:	00 00       	.word	0x0000;	????	
  f4:	10 00       	.word	0x0010;	????	
  f6:	00 00       	.word	0x0000;	????	
  f8:	02 00       	.word	0x0002;	????	
  fa:	f3 0b       	.word	0x0bf3;	????	
  fc:	00 00       	.word	0x0000;	????	
  fe:	02 00       	.word	0x0002;	????	
 100:	2c c7       	bic	@r7,	r12	
 102:	02 00       	.word	0x0002;	????	
 104:	00 00       	.word	0x0000;	????	
	...

Disassembly of section .debug_info:

00000000 <.debug_info>:
   0:	dc 02       	.word	0x02dc;	????	
   2:	00 00       	.word	0x0000;	????	
   4:	02 00       	.word	0x0002;	????	
   6:	00 00       	.word	0x0000;	????	
   8:	00 00       	.word	0x0000;	????	
   a:	02 01       	.word	0x0102;	????	
   c:	81 00       	.word	0x0081;	????	
   e:	00 00       	.word	0x0000;	????	
  10:	01 69       	addc	r9,	r1	
  12:	00 00       	.word	0x0000;	????	
  14:	00 12       	push	r0		
  16:	01 00       	.word	0x0001;	????	
	...
  24:	00 02       	.word	0x0200;	????	
  26:	02 07       	.word	0x0702;	????	
  28:	f3 00       	.word	0x00f3;	????	
  2a:	00 00       	.word	0x0000;	????	
  2c:	02 04       	.word	0x0402;	????	
  2e:	05 60       	addc	r0,	r5	
  30:	00 00       	.word	0x0000;	????	
  32:	00 03       	.word	0x0300;	????	
  34:	02 05       	.word	0x0502;	????	
  36:	69 6e       	addc.b	@r14,	r9	
  38:	74 00       	.word	0x0074;	????	
  3a:	02 01       	.word	0x0102;	????	
  3c:	06 dd       	bis	r13,	r6	
  3e:	00 00       	.word	0x0000;	????	
  40:	00 02       	.word	0x0200;	????	
  42:	08 05       	.word	0x0508;	????	
  44:	5b 00       	.word	0x005b;	????	
  46:	00 00       	.word	0x0000;	????	
  48:	02 01       	.word	0x0102;	????	
  4a:	08 db       	bis	r11,	r8	
  4c:	00 00       	.word	0x0000;	????	
  4e:	00 02       	.word	0x0200;	????	
  50:	04 07       	.word	0x0704;	????	
  52:	ee 00       	.word	0x00ee;	????	
  54:	00 00       	.word	0x0000;	????	
  56:	02 08       	.word	0x0802;	????	
  58:	07 e9       	xor	r9,	r7	
  5a:	00 00       	.word	0x0000;	????	
  5c:	00 02       	.word	0x0200;	????	
  5e:	02 07       	.word	0x0702;	????	
  60:	32 01       	.word	0x0132;	????	
  62:	00 00       	.word	0x0000;	????	
  64:	02 01       	.word	0x0102;	????	
  66:	06 e4       	xor	r4,	r6	
  68:	00 00       	.word	0x0000;	????	
  6a:	00 04       	.word	0x0400;	????	
  6c:	ab 01       	.word	0x01ab;	????	
  6e:	00 00       	.word	0x0000;	????	
  70:	04 01       	.word	0x0104;	????	
  72:	09 94       	cmp	r4,	r9	
  74:	00 00       	.word	0x0000;	????	
  76:	00 05       	.word	0x0500;	????	
  78:	b3 01       	.word	0x01b3;	????	
  7a:	00 00       	.word	0x0000;	????	
  7c:	01 0a       	.word	0x0a01;	????	
  7e:	33 00       	.word	0x0033;	????	
  80:	00 00       	.word	0x0000;	????	
  82:	02 23       	jnz	$-506    	;abs 0xfe88
  84:	00 05       	.word	0x0500;	????	
  86:	dd 03       	.word	0x03dd;	????	
  88:	00 00       	.word	0x0000;	????	
  8a:	01 0b       	.word	0x0b01;	????	
  8c:	94 00       	.word	0x0094;	????	
  8e:	00 00       	.word	0x0000;	????	
  90:	02 23       	jnz	$-506    	;abs 0xfe96
  92:	02 00       	.word	0x0002;	????	
  94:	06 02       	.word	0x0206;	????	
  96:	6b 00       	.word	0x006b;	????	
  98:	00 00       	.word	0x0000;	????	
  9a:	07 ac       	dadd	r12,	r7	
  9c:	01 00       	.word	0x0001;	????	
  9e:	00 01       	.word	0x0100;	????	
  a0:	0c 6b       	addc	r11,	r12	
  a2:	00 00       	.word	0x0000;	????	
  a4:	00 08       	.word	0x0800;	????	
  a6:	01 21       	jnz	$+516    	;abs 0x2aa
  a8:	00 00       	.word	0x0000;	????	
  aa:	00 01       	.word	0x0100;	????	
  ac:	13 01       	.word	0x0113;	????	
  ae:	33 00       	.word	0x0033;	????	
  b0:	00 00       	.word	0x0000;	????	
  b2:	3e c0 f0 c0 	bic	#-16144,r14	;#0xc0f0
  b6:	00 00       	.word	0x0000;	????	
  b8:	00 00       	.word	0x0000;	????	
  ba:	09 01       	.word	0x0109;	????	
  bc:	44 00       	.word	0x0044;	????	
  be:	00 00       	.word	0x0000;	????	
  c0:	01 37       	jge	$-508    	;abs 0xfec4
  c2:	01 fa       	and	r10,	r1	
  c4:	c0 94 c1 2c 	cmp.b	r4,	11457(r0);PC rel. 0x2d87
  c8:	00 00       	.word	0x0000;	????	
  ca:	00 ec       	xor	r12,	r0	
  cc:	00 00       	.word	0x0000;	????	
  ce:	00 0a       	.word	0x0a00;	????	
  d0:	5d 01       	.word	0x015d;	????	
  d2:	00 00       	.word	0x0000;	????	
  d4:	01 37       	jge	$-508    	;abs 0xfed8
  d6:	25 00       	.word	0x0025;	????	
  d8:	00 00       	.word	0x0000;	????	
  da:	02 91       	cmp	r1,	r2	
  dc:	7a 0a       	.word	0x0a7a;	????	
  de:	a3 01       	.word	0x01a3;	????	
  e0:	00 00       	.word	0x0000;	????	
  e2:	01 37       	jge	$-508    	;abs 0xfee6
  e4:	ec 00       	.word	0x00ec;	????	
  e6:	00 00       	.word	0x0000;	????	
  e8:	02 91       	cmp	r1,	r2	
  ea:	7c 00       	.word	0x007c;	????	
  ec:	06 02       	.word	0x0206;	????	
  ee:	25 00       	.word	0x0025;	????	
  f0:	00 00       	.word	0x0000;	????	
  f2:	0b 01       	.word	0x010b;	????	
  f4:	3e 00       	.word	0x003e;	????	
  f6:	00 00       	.word	0x0000;	????	
  f8:	01 48       	mov	r8,	r1	
  fa:	01 94       	cmp	r4,	r1	
  fc:	c1 96 c1 02 	cmp.b	r6,	705(r1)	;0x02c1(r1)
 100:	71 00       	.word	0x0071;	????	
 102:	09 01       	.word	0x0109;	????	
 104:	b6 00       	.word	0x00b6;	????	
 106:	00 00       	.word	0x0000;	????	
 108:	01 4d       	mov	r13,	r1	
 10a:	01 96       	cmp	r6,	r1	
 10c:	c1 e8 c1 40 	xor.b	r8,	16577(r1);0x40c1(r1)
 110:	00 00       	.word	0x0000;	????	
 112:	00 26       	jz	$-1022   	;abs 0xfd14
 114:	01 00       	.word	0x0001;	????	
 116:	00 0c       	.word	0x0c00;	????	
 118:	26 00       	.word	0x0026;	????	
 11a:	00 00       	.word	0x0000;	????	
 11c:	01 50       	add	r0,	r1	
 11e:	26 01       	.word	0x0126;	????	
 120:	00 00       	.word	0x0000;	????	
 122:	02 91       	cmp	r1,	r2	
 124:	74 00       	.word	0x0074;	????	
 126:	06 02       	.word	0x0206;	????	
 128:	9a 00       	.word	0x009a;	????	
 12a:	00 00       	.word	0x0000;	????	
 12c:	0d 47       	mov	r7,	r13	
 12e:	01 00       	.word	0x0001;	????	
 130:	00 02       	.word	0x0200;	????	
 132:	ae 45 01 00 	mov	@r5,	1(r14)	;0x0001(r14)
 136:	00 3d       	jmp	$+514    	;abs 0x338
 138:	01 00       	.word	0x0001;	????	
 13a:	00 01       	.word	0x0100;	????	
 13c:	01 0e       	.word	0x0e01;	????	
 13e:	48 00       	.word	0x0048;	????	
 140:	00 00       	.word	0x0000;	????	
 142:	0d 53       	add	#0,	r13	;r3 As==00
 144:	01 00       	.word	0x0001;	????	
 146:	00 02       	.word	0x0200;	????	
 148:	b0 51 01 00 	add	@r1+,	1(r0)	;PC rel. 0x014b
 14c:	00 3d       	jmp	$+514    	;abs 0x34e
 14e:	01 00       	.word	0x0001;	????	
 150:	00 01       	.word	0x0100;	????	
 152:	01 0d       	.word	0x0d01;	????	
 154:	71 01       	.word	0x0171;	????	
 156:	00 00       	.word	0x0000;	????	
 158:	02 b2       	bit	r2,	r2	
 15a:	6f 01       	.word	0x016f;	????	
 15c:	00 00       	.word	0x0000;	????	
 15e:	3d 01       	.word	0x013d;	????	
 160:	00 00       	.word	0x0000;	????	
 162:	01 01       	.word	0x0101;	????	
 164:	0d 83       	sub	#0,	r13	;r3 As==00
 166:	01 00       	.word	0x0001;	????	
 168:	00 02       	.word	0x0200;	????	
 16a:	b5 81 01 00 	sub	@r1+,	1(r5)	;0x0001(r5)
 16e:	00 75       	subc	r5,	r0	
 170:	01 00       	.word	0x0001;	????	
 172:	00 01       	.word	0x0100;	????	
 174:	01 0e       	.word	0x0e01;	????	
 176:	25 00       	.word	0x0025;	????	
 178:	00 00       	.word	0x0000;	????	
 17a:	0d 8f       	sub	r15,	r13	
 17c:	01 00       	.word	0x0001;	????	
 17e:	00 02       	.word	0x0200;	????	
 180:	b7 8d 01 00 	sub	@r13+,	1(r7)	;0x0001(r7)
 184:	00 75       	subc	r5,	r0	
 186:	01 00       	.word	0x0001;	????	
 188:	00 01       	.word	0x0100;	????	
 18a:	01 0d       	.word	0x0d01;	????	
 18c:	02 01       	.word	0x0102;	????	
 18e:	00 00       	.word	0x0000;	????	
 190:	02 bb       	bit	r11,	r2	
 192:	00 01       	.word	0x0100;	????	
 194:	00 00       	.word	0x0000;	????	
 196:	75 01       	.word	0x0175;	????	
 198:	00 00       	.word	0x0000;	????	
 19a:	01 01       	.word	0x0101;	????	
 19c:	0f 71       	subc	r1,	r15	
 19e:	00 00       	.word	0x0000;	????	
 1a0:	00 02       	.word	0x0200;	????	
 1a2:	24 01       	.word	0x0124;	????	
 1a4:	6f 00       	.word	0x006f;	????	
 1a6:	00 00       	.word	0x0000;	????	
 1a8:	3d 01       	.word	0x013d;	????	
 1aa:	00 00       	.word	0x0000;	????	
 1ac:	01 01       	.word	0x0101;	????	
 1ae:	0f 67       	addc	r7,	r15	
 1b0:	01 00       	.word	0x0001;	????	
 1b2:	00 02       	.word	0x0200;	????	
 1b4:	26 01       	.word	0x0126;	????	
 1b6:	65 01       	.word	0x0165;	????	
 1b8:	00 00       	.word	0x0000;	????	
 1ba:	3d 01       	.word	0x013d;	????	
 1bc:	00 00       	.word	0x0000;	????	
 1be:	01 01       	.word	0x0101;	????	
 1c0:	0f 0b       	.word	0x0b0f;	????	
 1c2:	00 00       	.word	0x0000;	????	
 1c4:	00 02       	.word	0x0200;	????	
 1c6:	da 01       	.word	0x01da;	????	
 1c8:	09 00       	.word	0x0009;	????	
 1ca:	00 00       	.word	0x0000;	????	
 1cc:	3d 01       	.word	0x013d;	????	
 1ce:	00 00       	.word	0x0000;	????	
 1d0:	01 01       	.word	0x0101;	????	
 1d2:	0f 1b       	.word	0x1b0f;	????	
 1d4:	00 00       	.word	0x0000;	????	
 1d6:	00 02       	.word	0x0200;	????	
 1d8:	dc 01       	.word	0x01dc;	????	
 1da:	19 00       	.word	0x0019;	????	
 1dc:	00 00       	.word	0x0000;	????	
 1de:	3d 01       	.word	0x013d;	????	
 1e0:	00 00       	.word	0x0000;	????	
 1e2:	01 01       	.word	0x0101;	????	
 1e4:	0f 13       	reti			;return from interupt
 1e6:	00 00       	.word	0x0000;	????	
 1e8:	00 02       	.word	0x0200;	????	
 1ea:	de 01       	.word	0x01de;	????	
 1ec:	11 00       	.word	0x0011;	????	
 1ee:	00 00       	.word	0x0000;	????	
 1f0:	3d 01       	.word	0x013d;	????	
 1f2:	00 00       	.word	0x0000;	????	
 1f4:	01 01       	.word	0x0101;	????	
 1f6:	0f c7       	bic	r7,	r15	
 1f8:	00 00       	.word	0x0000;	????	
 1fa:	00 02       	.word	0x0200;	????	
 1fc:	e0 01       	.word	0x01e0;	????	
 1fe:	c5 00       	.word	0x00c5;	????	
 200:	00 00       	.word	0x0000;	????	
 202:	3d 01       	.word	0x013d;	????	
 204:	00 00       	.word	0x0000;	????	
 206:	01 01       	.word	0x0101;	????	
 208:	0f 7c       	subc	r12,	r15	
 20a:	01 00       	.word	0x0001;	????	
 20c:	00 02       	.word	0x0200;	????	
 20e:	e2 01       	.word	0x01e2;	????	
 210:	7a 01       	.word	0x017a;	????	
 212:	00 00       	.word	0x0000;	????	
 214:	3d 01       	.word	0x013d;	????	
 216:	00 00       	.word	0x0000;	????	
 218:	01 01       	.word	0x0101;	????	
 21a:	0f 55       	add	r5,	r15	
 21c:	00 00       	.word	0x0000;	????	
 21e:	00 02       	.word	0x0200;	????	
 220:	e4 01       	.word	0x01e4;	????	
 222:	53 00       	.word	0x0053;	????	
 224:	00 00       	.word	0x0000;	????	
 226:	3d 01       	.word	0x013d;	????	
 228:	00 00       	.word	0x0000;	????	
 22a:	01 01       	.word	0x0101;	????	
 22c:	0f bf       	bit	r15,	r15	
 22e:	00 00       	.word	0x0000;	????	
 230:	00 02       	.word	0x0200;	????	
 232:	e8 01       	.word	0x01e8;	????	
 234:	bd 00       	.word	0x00bd;	????	
 236:	00 00       	.word	0x0000;	????	
 238:	3d 01       	.word	0x013d;	????	
 23a:	00 00       	.word	0x0000;	????	
 23c:	01 01       	.word	0x0101;	????	
 23e:	0f 02       	.word	0x020f;	????	
 240:	00 00       	.word	0x0000;	????	
 242:	00 02       	.word	0x0200;	????	
 244:	17 02       	.word	0x0217;	????	
 246:	00 00       	.word	0x0000;	????	
 248:	00 00       	.word	0x0000;	????	
 24a:	75 01       	.word	0x0175;	????	
 24c:	00 00       	.word	0x0000;	????	
 24e:	01 01       	.word	0x0101;	????	
 250:	0f 35       	jge	$+544    	;abs 0x470
 252:	00 00       	.word	0x0000;	????	
 254:	00 02       	.word	0x0200;	????	
 256:	1b 02       	.word	0x021b;	????	
 258:	33 00       	.word	0x0033;	????	
 25a:	00 00       	.word	0x0000;	????	
 25c:	75 01       	.word	0x0175;	????	
 25e:	00 00       	.word	0x0000;	????	
 260:	01 01       	.word	0x0101;	????	
 262:	0f 9b       	cmp	r11,	r15	
 264:	01 00       	.word	0x0001;	????	
 266:	00 02       	.word	0x0200;	????	
 268:	21 02       	.word	0x0221;	????	
 26a:	99 01       	.word	0x0199;	????	
 26c:	00 00       	.word	0x0000;	????	
 26e:	75 01       	.word	0x0175;	????	
 270:	00 00       	.word	0x0000;	????	
 272:	01 01       	.word	0x0101;	????	
 274:	0f 7a       	subc	r10,	r15	
 276:	00 00       	.word	0x0000;	????	
 278:	00 02       	.word	0x0200;	????	
 27a:	8a 03       	.word	0x038a;	????	
 27c:	78 00       	.word	0x0078;	????	
 27e:	00 00       	.word	0x0000;	????	
 280:	75 01       	.word	0x0175;	????	
 282:	00 00       	.word	0x0000;	????	
 284:	01 01       	.word	0x0101;	????	
 286:	0f cf       	bic	r15,	r15	
 288:	00 00       	.word	0x0000;	????	
 28a:	00 02       	.word	0x0200;	????	
 28c:	c6 03       	.word	0x03c6;	????	
 28e:	cd 00       	.word	0x00cd;	????	
 290:	00 00       	.word	0x0000;	????	
 292:	98 02       	.word	0x0298;	????	
 294:	00 00       	.word	0x0000;	????	
 296:	01 01       	.word	0x0101;	????	
 298:	10 3d       	jmp	$+546    	;abs 0x4ba
 29a:	01 00       	.word	0x0001;	????	
 29c:	00 0f       	.word	0x0f00;	????	
 29e:	bb 01       	.word	0x01bb;	????	
 2a0:	00 00       	.word	0x0000;	????	
 2a2:	02 c8       	bic	r8,	r2	
 2a4:	03 b9       	.word	0xb903;	????	Illegal as 2-op instr
 2a6:	01 00       	.word	0x0001;	????	
 2a8:	00 98       	cmp	r8,	r0	
 2aa:	02 00       	.word	0x0002;	????	
 2ac:	00 01       	.word	0x0100;	????	
 2ae:	01 11       	rra	r1		
 2b0:	2e 00       	.word	0x002e;	????	
 2b2:	00 00       	.word	0x0000;	????	
 2b4:	01 0e       	.word	0x0e01;	????	
 2b6:	26 01       	.word	0x0126;	????	
 2b8:	00 00       	.word	0x0000;	????	
 2ba:	01 03       	.word	0x0301;	????	
 2bc:	03 00       	.word	0x0003;	????	
 2be:	02 11       	rra	r2		
 2c0:	0a 01       	.word	0x010a;	????	
 2c2:	00 00       	.word	0x0000;	????	
 2c4:	01 0f       	.word	0x0f01;	????	
 2c6:	26 01       	.word	0x0126;	????	
 2c8:	00 00       	.word	0x0000;	????	
 2ca:	01 03       	.word	0x0301;	????	
 2cc:	03 02       	.word	0x0203;	????	
 2ce:	02 11       	rra	r2		
 2d0:	a3 01       	.word	0x01a3;	????	
 2d2:	00 00       	.word	0x0000;	????	
 2d4:	01 11       	rra	r1		
 2d6:	ec 00       	.word	0x00ec;	????	
 2d8:	00 00       	.word	0x0000;	????	
 2da:	01 03       	.word	0x0301;	????	
 2dc:	03 04       	.word	0x0403;	????	
 2de:	02 00       	.word	0x0002;	????	
 2e0:	50 02       	.word	0x0250;	????	
 2e2:	00 00       	.word	0x0000;	????	
 2e4:	02 00       	.word	0x0002;	????	
 2e6:	08 01       	.word	0x0108;	????	
 2e8:	00 00       	.word	0x0000;	????	
 2ea:	02 01       	.word	0x0102;	????	
 2ec:	81 00       	.word	0x0081;	????	
 2ee:	00 00       	.word	0x0000;	????	
 2f0:	01 13       	reti			;return from interupt
 2f2:	02 00       	.word	0x0002;	????	
 2f4:	00 2c       	jc	$+2      	;abs 0x2f6
 2f6:	02 00       	.word	0x0002;	????	
 2f8:	00 e8       	xor	r8,	r0	
 2fa:	c1 52 c4 0b 	add.b	r2,	3012(r1);0x0bc4(r1)
 2fe:	01 00       	.word	0x0001;	????	
 300:	00 02       	.word	0x0200;	????	
 302:	5d 02       	.word	0x025d;	????	
 304:	00 00       	.word	0x0000;	????	
 306:	02 28       	jnc	$+6      	;abs 0x30c
 308:	2c 00       	.word	0x002c;	????	
 30a:	00 00       	.word	0x0000;	????	
 30c:	03 02       	.word	0x0203;	????	
 30e:	e2 01       	.word	0x01e2;	????	
 310:	00 00       	.word	0x0000;	????	
 312:	02 64       	addc	r4,	r2	
 314:	02 00       	.word	0x0002;	????	
 316:	00 02       	.word	0x0200;	????	
 318:	66 21       	jnz	$+718    	;abs 0x5e6
 31a:	00 00       	.word	0x0000;	????	
 31c:	00 04       	.word	0x0400;	????	
 31e:	ff 01       	.word	0x01ff;	????	
 320:	00 00       	.word	0x0000;	????	
 322:	01 59       	add	r9,	r1	
 324:	01 e8       	xor	r8,	r1	
 326:	c1 52 c2 74 	add.b	r2,	29890(r1);0x74c2(r1)
 32a:	00 00       	.word	0x0000;	????	
 32c:	00 87       	sub	r7,	r0	
 32e:	00 00       	.word	0x0000;	????	
 330:	00 05       	.word	0x0500;	????	
 332:	78 00       	.word	0x0078;	????	
 334:	01 59       	add	r9,	r1	
 336:	87 00       	.word	0x0087;	????	
 338:	00 00       	.word	0x0000;	????	
 33a:	a8 00       	.word	0x00a8;	????	
 33c:	00 00       	.word	0x0000;	????	
 33e:	05 64       	addc	r4,	r5	
 340:	70 00       	.word	0x0070;	????	
 342:	01 59       	add	r9,	r1	
 344:	8e 00       	.word	0x008e;	????	
 346:	00 00       	.word	0x0000;	????	
 348:	c4 00       	.word	0x00c4;	????	
 34a:	00 00       	.word	0x0000;	????	
 34c:	06 63       	adc	r6		
 34e:	00 01       	.word	0x0100;	????	
 350:	5b 99 00 00 	cmp.b	0(r9),	r11	;0x0000(r9)
 354:	00 d6       	bis	r6,	r0	
 356:	00 00       	.word	0x0000;	????	
 358:	00 06       	.word	0x0600;	????	
 35a:	64 00       	.word	0x0064;	????	
 35c:	01 5c       	add	r12,	r1	
 35e:	87 00       	.word	0x0087;	????	
 360:	00 00       	.word	0x0000;	????	
 362:	ea 00       	.word	0x00ea;	????	
 364:	00 00       	.word	0x0000;	????	
 366:	00 07       	.word	0x0700;	????	
 368:	04 07       	.word	0x0704;	????	
 36a:	ee 00       	.word	0x00ee;	????	
 36c:	00 00       	.word	0x0000;	????	
 36e:	08 02       	.word	0x0208;	????	
 370:	94 00       	.word	0x0094;	????	
 372:	00 00       	.word	0x0000;	????	
 374:	09 87       	sub	r7,	r9	
 376:	00 00       	.word	0x0000;	????	
 378:	00 07       	.word	0x0700;	????	
 37a:	01 06       	.word	0x0601;	????	
 37c:	e4 00       	.word	0x00e4;	????	
 37e:	00 00       	.word	0x0000;	????	
 380:	0a 0d       	.word	0x0d0a;	????	
 382:	02 00       	.word	0x0002;	????	
 384:	00 01       	.word	0x0100;	????	
 386:	53 01       	.word	0x0153;	????	
 388:	52 c2 60 c2 	bic.b	&0xc260,r2	
 38c:	02 71       	subc	r1,	r2	
 38e:	02 d0       	bis	r0,	r2	
 390:	00 00       	.word	0x0000;	????	
 392:	00 05       	.word	0x0500;	????	
 394:	6e 00       	.word	0x006e;	????	
 396:	01 53       	add	#0,	r1	;r3 As==00
 398:	d0 00       	.word	0x00d0;	????	
 39a:	00 00       	.word	0x0000;	????	
 39c:	02 01       	.word	0x0102;	????	
 39e:	00 00       	.word	0x0000;	????	
 3a0:	0b 68       	addc	r8,	r11	
 3a2:	65 78       	subc.b	@r8,	r5	
 3a4:	00 01       	.word	0x0100;	????	
 3a6:	55 e7 00 00 	xor.b	0(r7),	r5	;0x0000(r7)
 3aa:	00 03       	.word	0x0300;	????	
 3ac:	03 64       	.word	0x6403;	????	Illegal as 2-op instr
 3ae:	c7 00       	.word	0x00c7;	????	
 3b0:	07 02       	.word	0x0207;	????	
 3b2:	07 f3       	and	#0,	r7	;r3 As==00
 3b4:	00 00       	.word	0x0000;	????	
 3b6:	00 0c       	.word	0x0c00;	????	
 3b8:	99 00       	.word	0x0099;	????	
 3ba:	00 00       	.word	0x0000;	????	
 3bc:	e7 00       	.word	0x00e7;	????	
 3be:	00 00       	.word	0x0000;	????	
 3c0:	0d d0       	bis	r0,	r13	
 3c2:	00 00       	.word	0x0000;	????	
 3c4:	00 0f       	.word	0x0f00;	????	
 3c6:	00 09       	.word	0x0900;	????	
 3c8:	d7 00       	.word	0x00d7;	????	
 3ca:	00 00       	.word	0x0000;	????	
 3cc:	0e 01       	.word	0x010e;	????	
 3ce:	22 02       	.word	0x0222;	????	
 3d0:	00 00       	.word	0x0000;	????	
 3d2:	01 18       	.word	0x1801;	????	
 3d4:	01 60       	addc	r0,	r1	
 3d6:	c2 74 c2 0d 	subc.b	r4,	&0x0dc2	
 3da:	01 00       	.word	0x0001;	????	
 3dc:	00 1e       	.word	0x1e00;	????	
 3de:	01 00       	.word	0x0001;	????	
 3e0:	00 0f       	.word	0x0f00;	????	
 3e2:	c7 01       	.word	0x01c7;	????	
 3e4:	00 00       	.word	0x0000;	????	
 3e6:	01 18       	.word	0x1801;	????	
 3e8:	1e 01       	.word	0x011e;	????	
 3ea:	00 00       	.word	0x0000;	????	
 3ec:	21 01       	.word	0x0121;	????	
 3ee:	00 00       	.word	0x0000;	????	
 3f0:	06 69       	addc	r9,	r6	
 3f2:	00 01       	.word	0x0100;	????	
 3f4:	1a 24       	jz	$+54     	;abs 0x42a
 3f6:	01 00       	.word	0x0001;	????	
 3f8:	00 2c       	jc	$+2      	;abs 0x3fa
 3fa:	01 00       	.word	0x0001;	????	
 3fc:	00 00       	.word	0x0000;	????	
 3fe:	08 02       	.word	0x0208;	????	
 400:	99 00       	.word	0x0099;	????	
 402:	00 00       	.word	0x0000;	????	
 404:	10 02       	.word	0x0210;	????	
 406:	05 69       	addc	r9,	r5	
 408:	6e 74       	subc.b	@r4,	r14	
 40a:	00 0e       	.word	0x0e00;	????	
 40c:	01 f4       	and	r4,	r1	
 40e:	01 00       	.word	0x0001;	????	
 410:	00 01       	.word	0x0100;	????	
 412:	21 01       	.word	0x0121;	????	
 414:	74 c2       	bic.b	#8,	r4	;r2 As==11
 416:	ee c2 38 01 	bic.b	#4,	312(r14);r2 As==10, 0x0138(r14)
 41a:	00 00       	.word	0x0000;	????	
 41c:	76 01       	.word	0x0176;	????	
 41e:	00 00       	.word	0x0000;	????	
 420:	05 6e       	addc	r14,	r5	
 422:	00 01       	.word	0x0100;	????	
 424:	21 24       	jz	$+68     	;abs 0x468
 426:	01 00       	.word	0x0001;	????	
 428:	00 64       	addc	r4,	r0	
 42a:	01 00       	.word	0x0001;	????	
 42c:	00 11       	rra	r0		
 42e:	6c 02       	.word	0x026c;	????	
 430:	00 00       	.word	0x0000;	????	
 432:	01 23       	jnz	$-508    	;abs 0x236
 434:	76 01       	.word	0x0176;	????	
 436:	00 00       	.word	0x0000;	????	
 438:	02 91       	cmp	r1,	r2	
 43a:	58 06       	.word	0x0658;	????	
 43c:	69 00       	.word	0x0069;	????	
 43e:	01 24       	jz	$+4      	;abs 0x442
 440:	24 01       	.word	0x0124;	????	
 442:	00 00       	.word	0x0000;	????	
 444:	8b 01       	.word	0x018b;	????	
 446:	00 00       	.word	0x0000;	????	
 448:	06 6a       	addc	r10,	r6	
 44a:	00 01       	.word	0x0100;	????	
 44c:	25 24       	jz	$+76     	;abs 0x498
 44e:	01 00       	.word	0x0001;	????	
 450:	00 96       	cmp	r6,	r0	
 452:	01 00       	.word	0x0001;	????	
 454:	00 00       	.word	0x0000;	????	
 456:	0c 24       	jz	$+26     	;abs 0x470
 458:	01 00       	.word	0x0001;	????	
 45a:	00 86       	sub	r6,	r0	
 45c:	01 00       	.word	0x0001;	????	
 45e:	00 0d       	.word	0x0d00;	????	
 460:	d0 00       	.word	0x00d0;	????	
 462:	00 00       	.word	0x0000;	????	
 464:	0f 00       	.word	0x000f;	????	
 466:	0e 01       	.word	0x010e;	????	
 468:	cc 01       	.word	0x01cc;	????	
 46a:	00 00       	.word	0x0000;	????	
 46c:	01 36       	jge	$-1020   	;abs 0x70
 46e:	01 ee       	xor	r14,	r1	
 470:	c2 28       	jnc	$+390    	;abs 0x5f6
 472:	c3 a3       	dadc.b	#1		;r3 As==01
 474:	01 00       	.word	0x0001;	????	
 476:	00 c5       	bic	r5,	r0	
 478:	01 00       	.word	0x0001;	????	
 47a:	00 05       	.word	0x0500;	????	
 47c:	6e 00       	.word	0x006e;	????	
 47e:	01 36       	jge	$-1020   	;abs 0x82
 480:	24 01       	.word	0x0124;	????	
 482:	00 00       	.word	0x0000;	????	
 484:	bf 01       	.word	0x01bf;	????	
 486:	00 00       	.word	0x0000;	????	
 488:	0f a5       	dadd	r5,	r15	
 48a:	03 00       	.word	0x0003;	????	
 48c:	00 01       	.word	0x0100;	????	
 48e:	36 24       	jz	$+110    	;abs 0x4fc
 490:	01 00       	.word	0x0001;	????	
 492:	00 d1       	bis	r1,	r0	
 494:	01 00       	.word	0x0001;	????	
 496:	00 06       	.word	0x0600;	????	
 498:	69 00       	.word	0x0069;	????	
 49a:	01 38       	jl	$+4      	;abs 0x49e
 49c:	24 01       	.word	0x0124;	????	
 49e:	00 00       	.word	0x0000;	????	
 4a0:	dc 01       	.word	0x01dc;	????	
 4a2:	00 00       	.word	0x0000;	????	
 4a4:	00 0e       	.word	0x0e00;	????	
 4a6:	01 d7       	bis	r7,	r1	
 4a8:	01 00       	.word	0x0001;	????	
 4aa:	00 01       	.word	0x0100;	????	
 4ac:	6a 01       	.word	0x016a;	????	
 4ae:	28 c3       	bic	#2,	r8	;r3 As==10
 4b0:	52 c4 ee 01 	bic.b	494(r4),r2	;0x01ee(r4)
 4b4:	00 00       	.word	0x0000;	????	
 4b6:	28 02       	.word	0x0228;	????	
 4b8:	00 00       	.word	0x0000;	????	
 4ba:	0f 1b       	.word	0x1b0f;	????	
 4bc:	02 00       	.word	0x0002;	????	
 4be:	00 01       	.word	0x0100;	????	
 4c0:	6a 1e       	.word	0x1e6a;	????	
 4c2:	01 00       	.word	0x0001;	????	
 4c4:	00 1a       	.word	0x1a00;	????	
 4c6:	02 00       	.word	0x0002;	????	
 4c8:	00 12       	push	r0		
 4ca:	06 63       	adc	r6		
 4cc:	00 01       	.word	0x0100;	????	
 4ce:	6c 99       	cmp.b	@r9,	r12	
 4d0:	00 00       	.word	0x0000;	????	
 4d2:	00 4f       	br	r15		
 4d4:	02 00       	.word	0x0002;	????	
 4d6:	00 06       	.word	0x0600;	????	
 4d8:	69 00       	.word	0x0069;	????	
 4da:	01 6d       	addc	r13,	r1	
 4dc:	24 01       	.word	0x0124;	????	
 4de:	00 00       	.word	0x0000;	????	
 4e0:	bc 02       	.word	0x02bc;	????	
 4e2:	00 00       	.word	0x0000;	????	
 4e4:	06 6e       	addc	r14,	r6	
 4e6:	00 01       	.word	0x0100;	????	
 4e8:	6e 28       	jnc	$+222    	;abs 0x5c6
 4ea:	02 00       	.word	0x0002;	????	
 4ec:	00 de       	bis	r14,	r0	
 4ee:	02 00       	.word	0x0002;	????	
 4f0:	00 06       	.word	0x0600;	????	
 4f2:	61 00       	.word	0x0061;	????	
 4f4:	01 70       	subc	r0,	r1	
 4f6:	32 00       	.word	0x0032;	????	
 4f8:	00 00       	.word	0x0000;	????	
 4fa:	09 03       	.word	0x0309;	????	
 4fc:	00 00       	.word	0x0000;	????	
 4fe:	13 05       	.word	0x0513;	????	
 500:	02 00       	.word	0x0002;	????	
 502:	00 01       	.word	0x0100;	????	
 504:	95 3e       	jmp	$-724    	;abs 0x230
 506:	c4 00       	.word	0x00c4;	????	
 508:	07 04       	.word	0x0407;	????	
 50a:	05 60       	addc	r0,	r5	
 50c:	00 00       	.word	0x0000;	????	
 50e:	00 0c       	.word	0x0c00;	????	
 510:	87 00       	.word	0x0087;	????	
 512:	00 00       	.word	0x0000;	????	
 514:	3f 02       	.word	0x023f;	????	
 516:	00 00       	.word	0x0000;	????	
 518:	0d d0       	bis	r0,	r13	
 51a:	00 00       	.word	0x0000;	????	
 51c:	00 09       	.word	0x0900;	????	
 51e:	00 0b       	.word	0x0b00;	????	
 520:	5f 64 76 00 	addc.b	118(r4),r15	;0x0076(r4)
 524:	01 44       	mov	r4,	r1	
 526:	4e 02       	.word	0x024e;	????	
 528:	00 00       	.word	0x0000;	????	
 52a:	03 03       	.word	0x0303;	????	
 52c:	3c c7       	bic	@r7+,	r12	
 52e:	09 2f       	jc	$-492    	;abs 0x342
 530:	02 00       	.word	0x0002;	????	
 532:	00 00       	.word	0x0000;	????	
 534:	5a 00       	.word	0x005a;	????	
 536:	00 00       	.word	0x0000;	????	
 538:	02 00       	.word	0x0002;	????	
 53a:	08 02       	.word	0x0208;	????	
 53c:	00 00       	.word	0x0000;	????	
 53e:	02 01       	.word	0x0102;	????	
 540:	81 00       	.word	0x0081;	????	
 542:	00 00       	.word	0x0000;	????	
 544:	01 87       	sub	r7,	r1	
 546:	02 00       	.word	0x0002;	????	
 548:	00 2c       	jc	$+2      	;abs 0x54a
 54a:	02 00       	.word	0x0002;	????	
 54c:	00 52       	add	r2,	r0	
 54e:	c4 5e c4 49 	add.b	r14,	18884(r4);0x49c4(r4)
 552:	02 00       	.word	0x0002;	????	
 554:	00 02       	.word	0x0200;	????	
 556:	01 7c       	subc	r12,	r1	
 558:	02 00       	.word	0x0002;	????	
 55a:	00 01       	.word	0x0100;	????	
 55c:	17 01       	.word	0x0117;	????	
 55e:	52 c4 58 c4 	bic.b	-15272(r4),r2	;0xc458(r4)
 562:	02 71       	subc	r1,	r2	
 564:	02 43       	clr	r2		
 566:	00 00       	.word	0x0000;	????	
 568:	00 03       	.word	0x0300;	????	
 56a:	63 00       	.word	0x0063;	????	
 56c:	01 17       	.word	0x1701;	????	
 56e:	43 00       	.word	0x0043;	????	
 570:	00 00       	.word	0x0000;	????	
 572:	5a 03       	.word	0x035a;	????	
 574:	00 00       	.word	0x0000;	????	
 576:	00 04       	.word	0x0400;	????	
 578:	01 06       	.word	0x0601;	????	
 57a:	e4 00       	.word	0x00e4;	????	
 57c:	00 00       	.word	0x0000;	????	
 57e:	05 01       	.word	0x0105;	????	
 580:	73 02       	.word	0x0273;	????	
 582:	00 00       	.word	0x0000;	????	
 584:	01 1c       	.word	0x1c01;	????	
 586:	43 00       	.word	0x0043;	????	
 588:	00 00       	.word	0x0000;	????	
 58a:	58 c4 5e c4 	bic.b	-15266(r4),r8	;0xc45e(r4)
 58e:	02 71       	subc	r1,	r2	
 590:	02 00       	.word	0x0002;	????	
 592:	c3 01       	.word	0x01c3;	????	
 594:	00 00       	.word	0x0000;	????	
 596:	02 00       	.word	0x0002;	????	
 598:	62 02       	.word	0x0262;	????	
 59a:	00 00       	.word	0x0000;	????	
 59c:	02 01       	.word	0x0102;	????	
 59e:	81 00       	.word	0x0081;	????	
 5a0:	00 00       	.word	0x0000;	????	
 5a2:	01 b4       	bit	r4,	r1	
 5a4:	02 00       	.word	0x0002;	????	
 5a6:	00 37       	jge	$-510    	;abs 0x3a8
 5a8:	03 00       	.word	0x0003;	????	
 5aa:	00 5e       	add	r14,	r0	
 5ac:	c4 c0 c5 8a 	bic.b	r0,	-30011(r4);0x8ac5(r4)
 5b0:	02 00       	.word	0x0002;	????	
 5b2:	00 02       	.word	0x0200;	????	
 5b4:	02 07       	.word	0x0702;	????	
 5b6:	f3 00       	.word	0x00f3;	????	
 5b8:	00 00       	.word	0x0000;	????	
 5ba:	02 01       	.word	0x0102;	????	
 5bc:	06 dd       	bis	r13,	r6	
 5be:	00 00       	.word	0x0000;	????	
 5c0:	00 03       	.word	0x0300;	????	
 5c2:	02 05       	.word	0x0502;	????	
 5c4:	69 6e       	addc.b	@r14,	r9	
 5c6:	74 00       	.word	0x0074;	????	
 5c8:	02 04       	.word	0x0402;	????	
 5ca:	05 60       	addc	r0,	r5	
 5cc:	00 00       	.word	0x0000;	????	
 5ce:	00 02       	.word	0x0200;	????	
 5d0:	08 05       	.word	0x0508;	????	
 5d2:	5b 00       	.word	0x005b;	????	
 5d4:	00 00       	.word	0x0000;	????	
 5d6:	02 01       	.word	0x0102;	????	
 5d8:	08 db       	bis	r11,	r8	
 5da:	00 00       	.word	0x0000;	????	
 5dc:	00 02       	.word	0x0200;	????	
 5de:	04 07       	.word	0x0704;	????	
 5e0:	ee 00       	.word	0x00ee;	????	
 5e2:	00 00       	.word	0x0000;	????	
 5e4:	02 08       	.word	0x0802;	????	
 5e6:	07 e9       	xor	r9,	r7	
 5e8:	00 00       	.word	0x0000;	????	
 5ea:	00 04       	.word	0x0400;	????	
 5ec:	01 0f       	.word	0x0f01;	????	
 5ee:	03 00       	.word	0x0003;	????	
 5f0:	00 01       	.word	0x0100;	????	
 5f2:	2a 01       	.word	0x012a;	????	
 5f4:	5e c4 88 c5 	bic.b	-14968(r4),r14	;0xc588(r4)
 5f8:	02 71       	subc	r1,	r2	
 5fa:	02 8d       	sub	r13,	r2	
 5fc:	00 00       	.word	0x0000;	????	
 5fe:	00 05       	.word	0x0500;	????	
 600:	96 02       	.word	0x0296;	????	
 602:	00 00       	.word	0x0000;	????	
 604:	01 2a       	jnc	$-1020   	;abs 0x208
 606:	36 00       	.word	0x0036;	????	
 608:	00 00       	.word	0x0000;	????	
 60a:	06 5e       	add	r14,	r6	
 60c:	93 02       	.word	0x0293;	????	
 60e:	5f 93       	cmp.b	#1,	r15	;r3 As==01
 610:	02 05       	.word	0x0502;	????	
 612:	06 03       	.word	0x0306;	????	
 614:	00 00       	.word	0x0000;	????	
 616:	01 2a       	jnc	$-1020   	;abs 0x21a
 618:	21 00       	.word	0x0021;	????	
 61a:	00 00       	.word	0x0000;	????	
 61c:	01 5d       	add	r13,	r1	
 61e:	00 04       	.word	0x0400;	????	
 620:	01 2b       	jnc	$-508    	;abs 0x424
 622:	03 00       	.word	0x0003;	????	
 624:	00 01       	.word	0x0100;	????	
 626:	25 01       	.word	0x0125;	????	
 628:	88 c5 98 c5 	bic	r5,	-14952(r8);0xc598(r8)
 62c:	02 71       	subc	r1,	r2	
 62e:	02 b1       	bit	r1,	r2	
 630:	00 00       	.word	0x0000;	????	
 632:	00 06       	.word	0x0600;	????	
 634:	06 03       	.word	0x0306;	????	
 636:	00 00       	.word	0x0000;	????	
 638:	01 25       	jz	$+516    	;abs 0x83c
 63a:	21 00       	.word	0x0021;	????	
 63c:	00 00       	.word	0x0000;	????	
 63e:	65 03       	.word	0x0365;	????	
 640:	00 00       	.word	0x0000;	????	
 642:	00 04       	.word	0x0400;	????	
 644:	01 ec       	xor	r12,	r1	
 646:	02 00       	.word	0x0002;	????	
 648:	00 01       	.word	0x0100;	????	
 64a:	5d 01       	.word	0x015d;	????	
 64c:	98 c5 9e c5 	bic	-14946(r5),28930(r8);0xc59e(r5), 0x7102(r8)
 650:	02 71 
 652:	02 d3       	bis	#0,	r2	;r3 As==00
 654:	00 00       	.word	0x0000;	????	
 656:	00 05       	.word	0x0500;	????	
 658:	01 03       	.word	0x0301;	????	
 65a:	00 00       	.word	0x0000;	????	
 65c:	01 5d       	add	r13,	r1	
 65e:	44 00       	.word	0x0044;	????	
 660:	00 00       	.word	0x0000;	????	
 662:	01 5f       	add	r15,	r1	
 664:	00 04       	.word	0x0400;	????	
 666:	01 74       	subc	r4,	r1	
 668:	03 00       	.word	0x0003;	????	
 66a:	00 01       	.word	0x0100;	????	
 66c:	62 01       	.word	0x0162;	????	
 66e:	9e c5 ac c5 	bic	-14932(r5),28930(r14);0xc5ac(r5), 0x7102(r14)
 672:	02 71 
 674:	02 f5       	and	r5,	r2	
 676:	00 00       	.word	0x0000;	????	
 678:	00 05       	.word	0x0500;	????	
 67a:	01 03       	.word	0x0301;	????	
 67c:	00 00       	.word	0x0000;	????	
 67e:	01 62       	addc	r2,	r1	
 680:	44 00       	.word	0x0044;	????	
 682:	00 00       	.word	0x0000;	????	
 684:	01 5f       	add	r15,	r1	
 686:	00 07       	.word	0x0700;	????	
 688:	01 e0       	xor	r0,	r1	
 68a:	02 00       	.word	0x0002;	????	
 68c:	00 01       	.word	0x0100;	????	
 68e:	68 44       	mov.b	@r4,	r8	
 690:	00 00       	.word	0x0000;	????	
 692:	00 ac       	dadd	r12,	r0	
 694:	c5 b2 c5 02 	bit.b	r2,	709(r5)	;0x02c5(r5)
 698:	71 02       	.word	0x0271;	????	
 69a:	07 01       	.word	0x0107;	????	
 69c:	9f 02       	.word	0x029f;	????	
 69e:	00 00       	.word	0x0000;	????	
 6a0:	01 6d       	addc	r13,	r1	
 6a2:	44 00       	.word	0x0044;	????	
 6a4:	00 00       	.word	0x0000;	????	
 6a6:	b2 c5 c0 c5 	bic	@r5+,	&0xc5c0	
 6aa:	02 71       	subc	r1,	r2	
 6ac:	02 08       	.word	0x0802;	????	
 6ae:	8b 03       	.word	0x038b;	????	
 6b0:	00 00       	.word	0x0000;	????	
 6b2:	02 a0       	dadd	r0,	r2	
 6b4:	89 03       	.word	0x0389;	????	
 6b6:	00 00       	.word	0x0000;	????	
 6b8:	2c 01       	.word	0x012c;	????	
 6ba:	00 00       	.word	0x0000;	????	
 6bc:	01 01       	.word	0x0101;	????	
 6be:	09 44       	mov	r4,	r9	
 6c0:	00 00       	.word	0x0000;	????	
 6c2:	00 0a       	.word	0x0a00;	????	
 6c4:	55 00       	.word	0x0055;	????	
 6c6:	00 00       	.word	0x0000;	????	
 6c8:	02 e4       	xor	r4,	r2	
 6ca:	01 53       	add	#0,	r1	;r3 As==00
 6cc:	00 00       	.word	0x0000;	????	
 6ce:	00 2c       	jc	$+2      	;abs 0x6d0
 6d0:	01 00       	.word	0x0001;	????	
 6d2:	00 01       	.word	0x0100;	????	
 6d4:	01 0a       	.word	0x0a01;	????	
 6d6:	fa 02       	.word	0x02fa;	????	
 6d8:	00 00       	.word	0x0000;	????	
 6da:	02 e6       	xor	r6,	r2	
 6dc:	01 f8       	and	r8,	r1	
 6de:	02 00       	.word	0x0002;	????	
 6e0:	00 2c       	jc	$+2      	;abs 0x6e2
 6e2:	01 00       	.word	0x0001;	????	
 6e4:	00 01       	.word	0x0100;	????	
 6e6:	01 0a       	.word	0x0a01;	????	
 6e8:	d7 02       	.word	0x02d7;	????	
 6ea:	00 00       	.word	0x0000;	????	
 6ec:	02 b3       	bit	#0,	r2	;r3 As==00
 6ee:	02 d5       	bis	r5,	r2	
 6f0:	02 00       	.word	0x0002;	????	
 6f2:	00 2c       	jc	$+2      	;abs 0x6f4
 6f4:	01 00       	.word	0x0001;	????	
 6f6:	00 01       	.word	0x0100;	????	
 6f8:	01 0a       	.word	0x0a01;	????	
 6fa:	92 03       	.word	0x0392;	????	
 6fc:	00 00       	.word	0x0000;	????	
 6fe:	02 b5       	bit	r5,	r2	
 700:	02 90       	cmp	r0,	r2	
 702:	03 00       	.word	0x0003;	????	
 704:	00 2c       	jc	$+2      	;abs 0x706
 706:	01 00       	.word	0x0001;	????	
 708:	00 01       	.word	0x0100;	????	
 70a:	01 0a       	.word	0x0a01;	????	
 70c:	9c 03       	.word	0x039c;	????	
 70e:	00 00       	.word	0x0000;	????	
 710:	02 b7       	bit	r7,	r2	
 712:	02 9a       	cmp	r10,	r2	
 714:	03 00       	.word	0x0003;	????	
 716:	00 2c       	jc	$+2      	;abs 0x718
 718:	01 00       	.word	0x0001;	????	
 71a:	00 01       	.word	0x0100;	????	
 71c:	01 0a       	.word	0x0a01;	????	
 71e:	6b 03       	.word	0x036b;	????	
 720:	00 00       	.word	0x0000;	????	
 722:	02 b9       	bit	r9,	r2	
 724:	02 69       	addc	r9,	r2	
 726:	03 00       	.word	0x0003;	????	
 728:	00 2c       	jc	$+2      	;abs 0x72a
 72a:	01 00       	.word	0x0001;	????	
 72c:	00 01       	.word	0x0100;	????	
 72e:	01 0a       	.word	0x0a01;	????	
 730:	cb 02       	.word	0x02cb;	????	
 732:	00 00       	.word	0x0000;	????	
 734:	02 bd       	bit	r13,	r2	
 736:	02 c9       	bic	r9,	r2	
 738:	02 00       	.word	0x0002;	????	
 73a:	00 af       	dadd	r15,	r0	
 73c:	01 00       	.word	0x0001;	????	
 73e:	00 01       	.word	0x0100;	????	
 740:	01 0b       	.word	0x0b01;	????	
 742:	2c 01       	.word	0x012c;	????	
 744:	00 00       	.word	0x0000;	????	
 746:	0a 21       	jnz	$+534    	;abs 0x95c
 748:	03 00       	.word	0x0003;	????	
 74a:	00 02       	.word	0x0200;	????	
 74c:	bf 02       	.word	0x02bf;	????	
 74e:	1f 03       	.word	0x031f;	????	
 750:	00 00       	.word	0x0000;	????	
 752:	2c 01       	.word	0x012c;	????	
 754:	00 00       	.word	0x0000;	????	
 756:	01 01       	.word	0x0101;	????	
 758:	00 86       	sub	r6,	r0	
 75a:	00 00       	.word	0x0000;	????	
 75c:	00 02       	.word	0x0200;	????	
 75e:	00 0c       	.word	0x0c00;	????	
 760:	03 00       	.word	0x0003;	????	
 762:	00 02       	.word	0x0200;	????	
 764:	01 7e       	subc	r14,	r1	
 766:	03 00       	.word	0x0003;	????	
 768:	00 c0       	bic	r0,	r0	
 76a:	c5 fa c5 2e 	and.b	r10,	11973(r5);0x2ec5(r5)
 76e:	2e 2f       	jc	$-418    	;abs 0x5cc
 770:	2e 2e       	jc	$-930    	;abs 0x3ce
 772:	2f 2e       	jc	$-928    	;abs 0x3d2
 774:	2e 2f       	jc	$-418    	;abs 0x5d2
 776:	2e 2e       	jc	$-930    	;abs 0x3d4
 778:	2f 67       	addc	@r7,	r15	
 77a:	63 63       	.word	0x6363;	????	Illegal as 2-op instr
 77c:	2f 6c       	addc	@r12,	r15	
 77e:	69 62       	addc.b	#4,	r9	;r2 As==10
 780:	67 63       	addc.b	#2,	r7	;r3 As==10
 782:	63 2f       	jc	$-312    	;abs 0x64a
 784:	2e 2e       	jc	$-930    	;abs 0x3e2
 786:	2f 67       	addc	@r7,	r15	
 788:	63 63       	.word	0x6363;	????	Illegal as 2-op instr
 78a:	2f 63       	addc	#2,	r15	;r3 As==10
 78c:	6f 6e       	addc.b	@r14,	r15	
 78e:	66 69       	addc.b	@r9,	r6	
 790:	67 2f       	jc	$-304    	;abs 0x660
 792:	6d 73       	subc.b	#2,	r13	;r3 As==10
 794:	70 34       	jge	$+226    	;abs 0x876
 796:	33 30       	jn	$+104    	;abs 0x7fe
 798:	2f 6c       	addc	@r12,	r15	
 79a:	69 62       	addc.b	#4,	r9	;r2 As==10
 79c:	67 63       	addc.b	#2,	r7	;r3 As==10
 79e:	63 2e       	jc	$-824    	;abs 0x466
 7a0:	53 00       	.word	0x0053;	????	
 7a2:	2f 68       	addc	@r8,	r15	
 7a4:	6f 6d       	addc.b	@r13,	r15	
 7a6:	65 2f       	jc	$-308    	;abs 0x672
 7a8:	72 6f       	addc.b	@r15+,	r2	
 7aa:	62 65       	addc.b	@r5,	r2	
 7ac:	72 74       	subc.b	@r4+,	r2	
 7ae:	69 6e       	addc.b	@r14,	r9	
 7b0:	61 6e       	addc.b	@r14,	r1	
 7b2:	74 2f       	jc	$-278    	;abs 0x69c
 7b4:	6d 73       	subc.b	#2,	r13	;r3 As==10
 7b6:	70 67       	addc.b	@r7+,	r0	
 7b8:	63 63       	.word	0x6363;	????	Illegal as 2-op instr
 7ba:	2f 42       	mov	#4,	r15	;r2 As==10
 7bc:	55 49 4c 44 	mov.b	17484(r9),r5	;0x444c(r9)
 7c0:	2f 67       	addc	@r7,	r15	
 7c2:	63 63       	.word	0x6363;	????	Illegal as 2-op instr
 7c4:	2f 6d       	addc	@r13,	r15	
 7c6:	73 70       	.word	0x7073;	????	Illegal as 2-op instr
 7c8:	34 33       	jn	$-406    	;abs 0x632
 7ca:	30 2f       	jc	$-414    	;abs 0x62c
 7cc:	6c 69       	addc.b	@r9,	r12	
 7ce:	62 67       	addc.b	@r7,	r2	
 7d0:	63 63       	.word	0x6363;	????	Illegal as 2-op instr
 7d2:	00 47       	br	r7		
 7d4:	4e 55       	add.b	r5,	r14	
 7d6:	20 41       	br	@r1		
 7d8:	53 20       	jnz	$+168    	;abs 0x880
 7da:	32 2e       	jc	$-922    	;abs 0x440
 7dc:	32 31       	jn	$+614    	;abs 0xa42
 7de:	2e 31       	jn	$+606    	;abs 0xa3c
 7e0:	00 01       	.word	0x0100;	????	
 7e2:	80 86 00 00 	sub	r6,	0(r0)	;PC rel. 0x07e4
 7e6:	00 02       	.word	0x0200;	????	
 7e8:	00 20       	jnz	$+2      	;abs 0x7ea
 7ea:	03 00       	.word	0x0003;	????	
 7ec:	00 02       	.word	0x0200;	????	
 7ee:	01 fa       	and	r10,	r1	
 7f0:	03 00       	.word	0x0003;	????	
 7f2:	00 fa       	and	r10,	r0	
 7f4:	c5 1c       	.word	0x1cc5;	????	
 7f6:	c6 2e       	jc	$-626    	;abs 0x584
 7f8:	2e 2f       	jc	$-418    	;abs 0x656
 7fa:	2e 2e       	jc	$-930    	;abs 0x458
 7fc:	2f 2e       	jc	$-928    	;abs 0x45c
 7fe:	2e 2f       	jc	$-418    	;abs 0x65c
 800:	2e 2e       	jc	$-930    	;abs 0x45e
 802:	2f 67       	addc	@r7,	r15	
 804:	63 63       	.word	0x6363;	????	Illegal as 2-op instr
 806:	2f 6c       	addc	@r12,	r15	
 808:	69 62       	addc.b	#4,	r9	;r2 As==10
 80a:	67 63       	addc.b	#2,	r7	;r3 As==10
 80c:	63 2f       	jc	$-312    	;abs 0x6d4
 80e:	2e 2e       	jc	$-930    	;abs 0x46c
 810:	2f 67       	addc	@r7,	r15	
 812:	63 63       	.word	0x6363;	????	Illegal as 2-op instr
 814:	2f 63       	addc	#2,	r15	;r3 As==10
 816:	6f 6e       	addc.b	@r14,	r15	
 818:	66 69       	addc.b	@r9,	r6	
 81a:	67 2f       	jc	$-304    	;abs 0x6ea
 81c:	6d 73       	subc.b	#2,	r13	;r3 As==10
 81e:	70 34       	jge	$+226    	;abs 0x900
 820:	33 30       	jn	$+104    	;abs 0x888
 822:	2f 6c       	addc	@r12,	r15	
 824:	69 62       	addc.b	#4,	r9	;r2 As==10
 826:	67 63       	addc.b	#2,	r7	;r3 As==10
 828:	63 2e       	jc	$-824    	;abs 0x4f0
 82a:	53 00       	.word	0x0053;	????	
 82c:	2f 68       	addc	@r8,	r15	
 82e:	6f 6d       	addc.b	@r13,	r15	
 830:	65 2f       	jc	$-308    	;abs 0x6fc
 832:	72 6f       	addc.b	@r15+,	r2	
 834:	62 65       	addc.b	@r5,	r2	
 836:	72 74       	subc.b	@r4+,	r2	
 838:	69 6e       	addc.b	@r14,	r9	
 83a:	61 6e       	addc.b	@r14,	r1	
 83c:	74 2f       	jc	$-278    	;abs 0x726
 83e:	6d 73       	subc.b	#2,	r13	;r3 As==10
 840:	70 67       	addc.b	@r7+,	r0	
 842:	63 63       	.word	0x6363;	????	Illegal as 2-op instr
 844:	2f 42       	mov	#4,	r15	;r2 As==10
 846:	55 49 4c 44 	mov.b	17484(r9),r5	;0x444c(r9)
 84a:	2f 67       	addc	@r7,	r15	
 84c:	63 63       	.word	0x6363;	????	Illegal as 2-op instr
 84e:	2f 6d       	addc	@r13,	r15	
 850:	73 70       	.word	0x7073;	????	Illegal as 2-op instr
 852:	34 33       	jn	$-406    	;abs 0x6bc
 854:	30 2f       	jc	$-414    	;abs 0x6b6
 856:	6c 69       	addc.b	@r9,	r12	
 858:	62 67       	addc.b	@r7,	r2	
 85a:	63 63       	.word	0x6363;	????	Illegal as 2-op instr
 85c:	00 47       	br	r7		
 85e:	4e 55       	add.b	r5,	r14	
 860:	20 41       	br	@r1		
 862:	53 20       	jnz	$+168    	;abs 0x90a
 864:	32 2e       	jc	$-922    	;abs 0x4ca
 866:	32 31       	jn	$+614    	;abs 0xacc
 868:	2e 31       	jn	$+606    	;abs 0xac6
 86a:	00 01       	.word	0x0100;	????	
 86c:	80 4d 01 00 	mov	r13,	1(r0)	;PC rel. 0x086f
 870:	00 02       	.word	0x0200;	????	
 872:	00 34       	jge	$+2      	;abs 0x874
 874:	03 00       	.word	0x0003;	????	
 876:	00 02       	.word	0x0200;	????	
 878:	01 81       	sub	r1,	r1	
 87a:	00 00       	.word	0x0000;	????	
 87c:	00 01       	.word	0x0100;	????	
 87e:	e7 03       	.word	0x03e7;	????	
 880:	00 00       	.word	0x0000;	????	
 882:	f9 03       	.word	0x03f9;	????	
 884:	00 00       	.word	0x0000;	????	
 886:	1c c6 2c c7 	bic	-14548(r6),r12	;0xc72c(r6)
 88a:	6b 04       	.word	0x046b;	????	
 88c:	00 00       	.word	0x0000;	????	
 88e:	02 04       	.word	0x0402;	????	
 890:	05 60       	addc	r0,	r5	
 892:	00 00       	.word	0x0000;	????	
 894:	00 03       	.word	0x0300;	????	
 896:	aa 03       	.word	0x03aa;	????	
 898:	00 00       	.word	0x0000;	????	
 89a:	02 d4       	bis	r4,	r2	
 89c:	33 00       	.word	0x0033;	????	
 89e:	00 00       	.word	0x0000;	????	
 8a0:	02 02       	.word	0x0202;	????	
 8a2:	07 f3       	and	#0,	r7	;r3 As==00
 8a4:	00 00       	.word	0x0000;	????	
 8a6:	00 04       	.word	0x0400;	????	
 8a8:	02 05       	.word	0x0502;	????	
 8aa:	69 6e       	addc.b	@r14,	r9	
 8ac:	74 00       	.word	0x0074;	????	
 8ae:	02 01       	.word	0x0102;	????	
 8b0:	06 dd       	bis	r13,	r6	
 8b2:	00 00       	.word	0x0000;	????	
 8b4:	00 02       	.word	0x0200;	????	
 8b6:	08 05       	.word	0x0508;	????	
 8b8:	5b 00       	.word	0x005b;	????	
 8ba:	00 00       	.word	0x0000;	????	
 8bc:	02 01       	.word	0x0102;	????	
 8be:	08 db       	bis	r11,	r8	
 8c0:	00 00       	.word	0x0000;	????	
 8c2:	00 02       	.word	0x0200;	????	
 8c4:	04 07       	.word	0x0704;	????	
 8c6:	ee 00       	.word	0x00ee;	????	
 8c8:	00 00       	.word	0x0000;	????	
 8ca:	02 08       	.word	0x0802;	????	
 8cc:	07 e9       	xor	r9,	r7	
 8ce:	00 00       	.word	0x0000;	????	
 8d0:	00 02       	.word	0x0200;	????	
 8d2:	02 07       	.word	0x0702;	????	
 8d4:	32 01       	.word	0x0132;	????	
 8d6:	00 00       	.word	0x0000;	????	
 8d8:	02 01       	.word	0x0102;	????	
 8da:	06 e4       	xor	r4,	r6	
 8dc:	00 00       	.word	0x0000;	????	
 8de:	00 05       	.word	0x0500;	????	
 8e0:	01 2b       	jnc	$-508    	;abs 0x6e4
 8e2:	04 00       	.word	0x0004;	????	
 8e4:	00 01       	.word	0x0100;	????	
 8e6:	1b 01       	.word	0x011b;	????	
 8e8:	03 01       	.word	0x0103;	????	
 8ea:	00 00       	.word	0x0000;	????	
 8ec:	1c c6 24 c7 	bic	-14556(r6),r12	;0xc724(r6)
 8f0:	70 03       	.word	0x0370;	????	
 8f2:	00 00       	.word	0x0000;	????	
 8f4:	03 01       	.word	0x0103;	????	
 8f6:	00 00       	.word	0x0000;	????	
 8f8:	06 a5       	dadd	r5,	r6	
 8fa:	03 00       	.word	0x0003;	????	
 8fc:	00 01       	.word	0x0100;	????	
 8fe:	1b 28       	jnc	$+56     	;abs 0x936
 900:	00 00       	.word	0x0000;	????	
 902:	00 bc       	bit	r12,	r0	
 904:	03 00       	.word	0x0003;	????	
 906:	00 07       	.word	0x0700;	????	
 908:	be 03       	.word	0x03be;	????	
 90a:	00 00       	.word	0x0000;	????	
 90c:	01 1d       	.word	0x1d01;	????	
 90e:	6b 00       	.word	0x006b;	????	
 910:	00 00       	.word	0x0000;	????	
 912:	03 03       	.word	0x0303;	????	
 914:	06 02       	.word	0x0206;	????	
 916:	08 c3       	bic	#0,	r8	;r3 As==00
 918:	03 00       	.word	0x0003;	????	
 91a:	00 01       	.word	0x0100;	????	
 91c:	1e 05       	.word	0x051e;	????	
 91e:	01 00       	.word	0x0001;	????	
 920:	00 d5       	bis	r5,	r0	
 922:	03 00       	.word	0x0003;	????	
 924:	00 09       	.word	0x0900;	????	
 926:	6b 6b       	addc.b	@r11,	r11	
 928:	00 01       	.word	0x0100;	????	
 92a:	1f 28       	jnc	$+64     	;abs 0x96a
 92c:	00 00       	.word	0x0000;	????	
 92e:	00 08       	.word	0x0800;	????	
 930:	cf 03       	.word	0x03cf;	????	
 932:	00 00       	.word	0x0000;	????	
 934:	01 20       	jnz	$+4      	;abs 0x938
 936:	05 01       	.word	0x0105;	????	
 938:	00 00       	.word	0x0000;	????	
 93a:	e0 03       	.word	0x03e0;	????	
 93c:	00 00       	.word	0x0000;	????	
 93e:	0a 66       	addc	r6,	r10	
 940:	00 01       	.word	0x0100;	????	
 942:	21 6b       	addc	@r11,	r1	
 944:	00 00       	.word	0x0000;	????	
 946:	00 1c       	.word	0x1c00;	????	
 948:	04 00       	.word	0x0004;	????	
 94a:	00 0b       	.word	0x0b00;	????	
 94c:	0c 00       	.word	0x000c;	????	
 94e:	00 00       	.word	0x0000;	????	
 950:	08 a4       	dadd	r4,	r8	
 952:	03 00       	.word	0x0003;	????	
 954:	00 01       	.word	0x0100;	????	
 956:	2d 28       	jnc	$+92     	;abs 0x9b2
 958:	00 00       	.word	0x0000;	????	
 95a:	00 3e       	jmp	$-1022   	;abs 0x55c
 95c:	04 00       	.word	0x0004;	????	
 95e:	00 08       	.word	0x0800;	????	
 960:	d8 03       	.word	0x03d8;	????	
 962:	00 00       	.word	0x0000;	????	
 964:	01 2e       	jc	$-1020   	;abs 0x568
 966:	05 01       	.word	0x0105;	????	
 968:	00 00       	.word	0x0000;	????	
 96a:	70 04       	.word	0x0470;	????	
 96c:	00 00       	.word	0x0000;	????	
 96e:	00 00       	.word	0x0000;	????	
 970:	0c 02       	.word	0x020c;	????	
 972:	0d 02       	.word	0x020d;	????	
 974:	28 00       	.word	0x0028;	????	
 976:	00 00       	.word	0x0000;	????	
 978:	0e 01       	.word	0x010e;	????	
 97a:	e2 03       	.word	0x03e2;	????	
 97c:	00 00       	.word	0x0000;	????	
 97e:	01 53       	add	#0,	r1	;r3 As==00
 980:	01 24       	jz	$+4      	;abs 0x984
 982:	c7 2c       	jc	$+400    	;abs 0xb12
 984:	c7 02       	.word	0x02c7;	????	
 986:	71 02       	.word	0x0271;	????	
 988:	38 01       	.word	0x0138;	????	
 98a:	00 00       	.word	0x0000;	????	
 98c:	0f 70       	subc	r0,	r15	
 98e:	00 01       	.word	0x0100;	????	
 990:	53 03       	.word	0x0353;	????	
 992:	01 00       	.word	0x0001;	????	
 994:	00 01       	.word	0x0100;	????	
 996:	5f 10 74 00 	rrc.b	116(r15)	;0x0074(r15)
 99a:	01 55       	add	r5,	r1	
 99c:	05 01       	.word	0x0105;	????	
 99e:	00 00       	.word	0x0000;	????	
 9a0:	03 7f       	.word	0x7f03;	????	Illegal as 2-op instr
 9a2:	7e 9f       	cmp.b	@r15+,	r14	
 9a4:	00 11       	rra	r0		
 9a6:	33 00       	.word	0x0033;	????	
 9a8:	00 00       	.word	0x0000;	????	
 9aa:	43 01       	.word	0x0143;	????	
 9ac:	00 00       	.word	0x0000;	????	
 9ae:	12 00       	.word	0x0012;	????	
 9b0:	13 b1       	.word	0xb113;	????	Illegal as 2-op instr
 9b2:	03 00       	.word	0x0003;	????	
 9b4:	00 03       	.word	0x0300;	????	
 9b6:	38 38       	jl	$+114    	;abs 0xa28
 9b8:	01 00       	.word	0x0001;	????	
 9ba:	00 01       	.word	0x0100;	????	
 9bc:	01 00       	.word	0x0001;	????	
 9be:	6d 00       	.word	0x006d;	????	
 9c0:	00 00       	.word	0x0000;	????	
 9c2:	02 00       	.word	0x0002;	????	
 9c4:	38 04       	.word	0x0438;	????	
 9c6:	00 00       	.word	0x0000;	????	
 9c8:	02 01       	.word	0x0102;	????	
 9ca:	4c 05       	.word	0x054c;	????	
 9cc:	00 00       	.word	0x0000;	????	
 9ce:	00 c0       	bic	r0,	r0	
 9d0:	0c c0       	bic	r0,	r12	
 9d2:	2e 2e       	jc	$-930    	;abs 0x630
 9d4:	2f 2e       	jc	$-928    	;abs 0x634
 9d6:	2e 2f       	jc	$-418    	;abs 0x834
 9d8:	2e 2e       	jc	$-930    	;abs 0x636
 9da:	2f 67       	addc	@r7,	r15	
 9dc:	63 63       	.word	0x6363;	????	Illegal as 2-op instr
 9de:	2f 67       	addc	@r7,	r15	
 9e0:	63 63       	.word	0x6363;	????	Illegal as 2-op instr
 9e2:	2f 63       	addc	#2,	r15	;r3 As==10
 9e4:	6f 6e       	addc.b	@r14,	r15	
 9e6:	66 69       	addc.b	@r9,	r6	
 9e8:	67 2f       	jc	$-304    	;abs 0x8b8
 9ea:	6d 73       	subc.b	#2,	r13	;r3 As==10
 9ec:	70 34       	jge	$+226    	;abs 0xace
 9ee:	33 30       	jn	$+104    	;abs 0xa56
 9f0:	2f 63       	addc	#2,	r15	;r3 As==10
 9f2:	72 74       	subc.b	@r4+,	r2	
 9f4:	30 2e       	jc	$-926    	;abs 0x656
 9f6:	53 00       	.word	0x0053;	????	
 9f8:	2f 68       	addc	@r8,	r15	
 9fa:	6f 6d       	addc.b	@r13,	r15	
 9fc:	65 2f       	jc	$-308    	;abs 0x8c8
 9fe:	72 6f       	addc.b	@r15+,	r2	
 a00:	62 65       	addc.b	@r5,	r2	
 a02:	72 74       	subc.b	@r4+,	r2	
 a04:	69 6e       	addc.b	@r14,	r9	
 a06:	61 6e       	addc.b	@r14,	r1	
 a08:	74 2f       	jc	$-278    	;abs 0x8f2
 a0a:	6d 73       	subc.b	#2,	r13	;r3 As==10
 a0c:	70 67       	addc.b	@r7+,	r0	
 a0e:	63 63       	.word	0x6363;	????	Illegal as 2-op instr
 a10:	2f 42       	mov	#4,	r15	;r2 As==10
 a12:	55 49 4c 44 	mov.b	17484(r9),r5	;0x444c(r9)
 a16:	2f 67       	addc	@r7,	r15	
 a18:	63 63       	.word	0x6363;	????	Illegal as 2-op instr
 a1a:	2f 67       	addc	@r7,	r15	
 a1c:	63 63       	.word	0x6363;	????	Illegal as 2-op instr
 a1e:	00 47       	br	r7		
 a20:	4e 55       	add.b	r5,	r14	
 a22:	20 41       	br	@r1		
 a24:	53 20       	jnz	$+168    	;abs 0xacc
 a26:	32 2e       	jc	$-922    	;abs 0x68c
 a28:	32 31       	jn	$+614    	;abs 0xc8e
 a2a:	2e 31       	jn	$+606    	;abs 0xc88
 a2c:	00 01       	.word	0x0100;	????	
 a2e:	80 6d 00 00 	addc	r13,	0(r0)	;PC rel. 0x0a30
 a32:	00 02       	.word	0x0200;	????	
 a34:	00 4c       	br	r12		
 a36:	04 00       	.word	0x0004;	????	
 a38:	00 02       	.word	0x0200;	????	
 a3a:	01 a2       	dadd	r2,	r1	
 a3c:	05 00       	.word	0x0005;	????	
 a3e:	00 0c       	.word	0x0c00;	????	
 a40:	c0 10       	.word	0x10c0;	????	
 a42:	c0 2e       	jc	$-638    	;abs 0x7c4
 a44:	2e 2f       	jc	$-418    	;abs 0x8a2
 a46:	2e 2e       	jc	$-930    	;abs 0x6a4
 a48:	2f 2e       	jc	$-928    	;abs 0x6a8
 a4a:	2e 2f       	jc	$-418    	;abs 0x8a8
 a4c:	67 63       	addc.b	#2,	r7	;r3 As==10
 a4e:	63 2f       	jc	$-312    	;abs 0x916
 a50:	67 63       	addc.b	#2,	r7	;r3 As==10
 a52:	63 2f       	jc	$-312    	;abs 0x91a
 a54:	63 6f       	.word	0x6f63;	????	Illegal as 2-op instr
 a56:	6e 66       	addc.b	@r6,	r14	
 a58:	69 67       	addc.b	@r7,	r9	
 a5a:	2f 6d       	addc	@r13,	r15	
 a5c:	73 70       	.word	0x7073;	????	Illegal as 2-op instr
 a5e:	34 33       	jn	$-406    	;abs 0x8c8
 a60:	30 2f       	jc	$-414    	;abs 0x8c2
 a62:	63 72       	.word	0x7263;	????	Illegal as 2-op instr
 a64:	74 30       	jn	$+234    	;abs 0xb4e
 a66:	2e 53       	incd	r14		
 a68:	00 2f       	jc	$-510    	;abs 0x86a
 a6a:	68 6f       	addc.b	@r15,	r8	
 a6c:	6d 65       	addc.b	@r5,	r13	
 a6e:	2f 72       	subc	#4,	r15	;r2 As==10
 a70:	6f 62       	addc.b	#4,	r15	;r2 As==10
 a72:	65 72       	subc.b	#4,	r5	;r2 As==10
 a74:	74 69       	addc.b	@r9+,	r4	
 a76:	6e 61       	addc.b	@r1,	r14	
 a78:	6e 74       	subc.b	@r4,	r14	
 a7a:	2f 6d       	addc	@r13,	r15	
 a7c:	73 70       	.word	0x7073;	????	Illegal as 2-op instr
 a7e:	67 63       	addc.b	#2,	r7	;r3 As==10
 a80:	63 2f       	jc	$-312    	;abs 0x948
 a82:	42 55       	add.b	r5,	r2	
 a84:	49 4c       	mov.b	r12,	r9	
 a86:	44 2f       	jc	$-374    	;abs 0x910
 a88:	67 63       	addc.b	#2,	r7	;r3 As==10
 a8a:	63 2f       	jc	$-312    	;abs 0x952
 a8c:	67 63       	addc.b	#2,	r7	;r3 As==10
 a8e:	63 00       	.word	0x0063;	????	
 a90:	47 4e       	mov.b	r14,	r7	
 a92:	55 20       	jnz	$+172    	;abs 0xb3e
 a94:	41 53       	add.b	#0,	r1	;r3 As==00
 a96:	20 32       	jn	$-958    	;abs 0x6d8
 a98:	2e 32       	jn	$-930    	;abs 0x6f6
 a9a:	31 2e       	jc	$-924    	;abs 0x6fe
 a9c:	31 00       	.word	0x0031;	????	
 a9e:	01 80       	sub	r0,	r1	
 aa0:	6d 00       	.word	0x006d;	????	
 aa2:	00 00       	.word	0x0000;	????	
 aa4:	02 00       	.word	0x0002;	????	
 aa6:	60 04       	.word	0x0460;	????	
 aa8:	00 00       	.word	0x0000;	????	
 aaa:	02 01       	.word	0x0102;	????	
 aac:	f6 05       	.word	0x05f6;	????	
 aae:	00 00       	.word	0x0000;	????	
 ab0:	10 c0 28 c0 	bic	-16344(r0),r0	;PC rel. 0xcada
 ab4:	2e 2e       	jc	$-930    	;abs 0x712
 ab6:	2f 2e       	jc	$-928    	;abs 0x716
 ab8:	2e 2f       	jc	$-418    	;abs 0x916
 aba:	2e 2e       	jc	$-930    	;abs 0x718
 abc:	2f 67       	addc	@r7,	r15	
 abe:	63 63       	.word	0x6363;	????	Illegal as 2-op instr
 ac0:	2f 67       	addc	@r7,	r15	
 ac2:	63 63       	.word	0x6363;	????	Illegal as 2-op instr
 ac4:	2f 63       	addc	#2,	r15	;r3 As==10
 ac6:	6f 6e       	addc.b	@r14,	r15	
 ac8:	66 69       	addc.b	@r9,	r6	
 aca:	67 2f       	jc	$-304    	;abs 0x99a
 acc:	6d 73       	subc.b	#2,	r13	;r3 As==10
 ace:	70 34       	jge	$+226    	;abs 0xbb0
 ad0:	33 30       	jn	$+104    	;abs 0xb38
 ad2:	2f 63       	addc	#2,	r15	;r3 As==10
 ad4:	72 74       	subc.b	@r4+,	r2	
 ad6:	30 2e       	jc	$-926    	;abs 0x738
 ad8:	53 00       	.word	0x0053;	????	
 ada:	2f 68       	addc	@r8,	r15	
 adc:	6f 6d       	addc.b	@r13,	r15	
 ade:	65 2f       	jc	$-308    	;abs 0x9aa
 ae0:	72 6f       	addc.b	@r15+,	r2	
 ae2:	62 65       	addc.b	@r5,	r2	
 ae4:	72 74       	subc.b	@r4+,	r2	
 ae6:	69 6e       	addc.b	@r14,	r9	
 ae8:	61 6e       	addc.b	@r14,	r1	
 aea:	74 2f       	jc	$-278    	;abs 0x9d4
 aec:	6d 73       	subc.b	#2,	r13	;r3 As==10
 aee:	70 67       	addc.b	@r7+,	r0	
 af0:	63 63       	.word	0x6363;	????	Illegal as 2-op instr
 af2:	2f 42       	mov	#4,	r15	;r2 As==10
 af4:	55 49 4c 44 	mov.b	17484(r9),r5	;0x444c(r9)
 af8:	2f 67       	addc	@r7,	r15	
 afa:	63 63       	.word	0x6363;	????	Illegal as 2-op instr
 afc:	2f 67       	addc	@r7,	r15	
 afe:	63 63       	.word	0x6363;	????	Illegal as 2-op instr
 b00:	00 47       	br	r7		
 b02:	4e 55       	add.b	r5,	r14	
 b04:	20 41       	br	@r1		
 b06:	53 20       	jnz	$+168    	;abs 0xbae
 b08:	32 2e       	jc	$-922    	;abs 0x76e
 b0a:	32 31       	jn	$+614    	;abs 0xd70
 b0c:	2e 31       	jn	$+606    	;abs 0xd6a
 b0e:	00 01       	.word	0x0100;	????	
 b10:	80 6d 00 00 	addc	r13,	0(r0)	;PC rel. 0x0b12
 b14:	00 02       	.word	0x0200;	????	
 b16:	00 74       	subc	r4,	r0	
 b18:	04 00       	.word	0x0004;	????	
 b1a:	00 02       	.word	0x0200;	????	
 b1c:	01 50       	add	r0,	r1	
 b1e:	06 00       	.word	0x0006;	????	
 b20:	00 28       	jnc	$+2      	;abs 0xb22
 b22:	c0 3e       	jmp	$-638    	;abs 0x8a4
 b24:	c0 2e       	jc	$-638    	;abs 0x8a6
 b26:	2e 2f       	jc	$-418    	;abs 0x984
 b28:	2e 2e       	jc	$-930    	;abs 0x786
 b2a:	2f 2e       	jc	$-928    	;abs 0x78a
 b2c:	2e 2f       	jc	$-418    	;abs 0x98a
 b2e:	67 63       	addc.b	#2,	r7	;r3 As==10
 b30:	63 2f       	jc	$-312    	;abs 0x9f8
 b32:	67 63       	addc.b	#2,	r7	;r3 As==10
 b34:	63 2f       	jc	$-312    	;abs 0x9fc
 b36:	63 6f       	.word	0x6f63;	????	Illegal as 2-op instr
 b38:	6e 66       	addc.b	@r6,	r14	
 b3a:	69 67       	addc.b	@r7,	r9	
 b3c:	2f 6d       	addc	@r13,	r15	
 b3e:	73 70       	.word	0x7073;	????	Illegal as 2-op instr
 b40:	34 33       	jn	$-406    	;abs 0x9aa
 b42:	30 2f       	jc	$-414    	;abs 0x9a4
 b44:	63 72       	.word	0x7263;	????	Illegal as 2-op instr
 b46:	74 30       	jn	$+234    	;abs 0xc30
 b48:	2e 53       	incd	r14		
 b4a:	00 2f       	jc	$-510    	;abs 0x94c
 b4c:	68 6f       	addc.b	@r15,	r8	
 b4e:	6d 65       	addc.b	@r5,	r13	
 b50:	2f 72       	subc	#4,	r15	;r2 As==10
 b52:	6f 62       	addc.b	#4,	r15	;r2 As==10
 b54:	65 72       	subc.b	#4,	r5	;r2 As==10
 b56:	74 69       	addc.b	@r9+,	r4	
 b58:	6e 61       	addc.b	@r1,	r14	
 b5a:	6e 74       	subc.b	@r4,	r14	
 b5c:	2f 6d       	addc	@r13,	r15	
 b5e:	73 70       	.word	0x7073;	????	Illegal as 2-op instr
 b60:	67 63       	addc.b	#2,	r7	;r3 As==10
 b62:	63 2f       	jc	$-312    	;abs 0xa2a
 b64:	42 55       	add.b	r5,	r2	
 b66:	49 4c       	mov.b	r12,	r9	
 b68:	44 2f       	jc	$-374    	;abs 0x9f2
 b6a:	67 63       	addc.b	#2,	r7	;r3 As==10
 b6c:	63 2f       	jc	$-312    	;abs 0xa34
 b6e:	67 63       	addc.b	#2,	r7	;r3 As==10
 b70:	63 00       	.word	0x0063;	????	
 b72:	47 4e       	mov.b	r14,	r7	
 b74:	55 20       	jnz	$+172    	;abs 0xc20
 b76:	41 53       	add.b	#0,	r1	;r3 As==00
 b78:	20 32       	jn	$-958    	;abs 0x7ba
 b7a:	2e 32       	jn	$-930    	;abs 0x7d8
 b7c:	31 2e       	jc	$-924    	;abs 0x7e0
 b7e:	31 00       	.word	0x0031;	????	
 b80:	01 80       	sub	r0,	r1	
 b82:	6d 00       	.word	0x006d;	????	
 b84:	00 00       	.word	0x0000;	????	
 b86:	02 00       	.word	0x0002;	????	
 b88:	88 04       	.word	0x0488;	????	
 b8a:	00 00       	.word	0x0000;	????	
 b8c:	02 01       	.word	0x0102;	????	
 b8e:	aa 06       	.word	0x06aa;	????	
 b90:	00 00       	.word	0x0000;	????	
 b92:	f0 c0 f6 c0 	bic.b	#-16138,11822(r0);#0xc0f6, PC rel. 0x39c4
 b96:	2e 2e 
 b98:	2f 2e       	jc	$-928    	;abs 0x7f8
 b9a:	2e 2f       	jc	$-418    	;abs 0x9f8
 b9c:	2e 2e       	jc	$-930    	;abs 0x7fa
 b9e:	2f 67       	addc	@r7,	r15	
 ba0:	63 63       	.word	0x6363;	????	Illegal as 2-op instr
 ba2:	2f 67       	addc	@r7,	r15	
 ba4:	63 63       	.word	0x6363;	????	Illegal as 2-op instr
 ba6:	2f 63       	addc	#2,	r15	;r3 As==10
 ba8:	6f 6e       	addc.b	@r14,	r15	
 baa:	66 69       	addc.b	@r9,	r6	
 bac:	67 2f       	jc	$-304    	;abs 0xa7c
 bae:	6d 73       	subc.b	#2,	r13	;r3 As==10
 bb0:	70 34       	jge	$+226    	;abs 0xc92
 bb2:	33 30       	jn	$+104    	;abs 0xc1a
 bb4:	2f 63       	addc	#2,	r15	;r3 As==10
 bb6:	72 74       	subc.b	@r4+,	r2	
 bb8:	30 2e       	jc	$-926    	;abs 0x81a
 bba:	53 00       	.word	0x0053;	????	
 bbc:	2f 68       	addc	@r8,	r15	
 bbe:	6f 6d       	addc.b	@r13,	r15	
 bc0:	65 2f       	jc	$-308    	;abs 0xa8c
 bc2:	72 6f       	addc.b	@r15+,	r2	
 bc4:	62 65       	addc.b	@r5,	r2	
 bc6:	72 74       	subc.b	@r4+,	r2	
 bc8:	69 6e       	addc.b	@r14,	r9	
 bca:	61 6e       	addc.b	@r14,	r1	
 bcc:	74 2f       	jc	$-278    	;abs 0xab6
 bce:	6d 73       	subc.b	#2,	r13	;r3 As==10
 bd0:	70 67       	addc.b	@r7+,	r0	
 bd2:	63 63       	.word	0x6363;	????	Illegal as 2-op instr
 bd4:	2f 42       	mov	#4,	r15	;r2 As==10
 bd6:	55 49 4c 44 	mov.b	17484(r9),r5	;0x444c(r9)
 bda:	2f 67       	addc	@r7,	r15	
 bdc:	63 63       	.word	0x6363;	????	Illegal as 2-op instr
 bde:	2f 67       	addc	@r7,	r15	
 be0:	63 63       	.word	0x6363;	????	Illegal as 2-op instr
 be2:	00 47       	br	r7		
 be4:	4e 55       	add.b	r5,	r14	
 be6:	20 41       	br	@r1		
 be8:	53 20       	jnz	$+168    	;abs 0xc90
 bea:	32 2e       	jc	$-922    	;abs 0x850
 bec:	32 31       	jn	$+614    	;abs 0xe52
 bee:	2e 31       	jn	$+606    	;abs 0xe4c
 bf0:	00 01       	.word	0x0100;	????	
 bf2:	80 6d 00 00 	addc	r13,	0(r0)	;PC rel. 0x0bf4
 bf6:	00 02       	.word	0x0200;	????	
 bf8:	00 9c       	cmp	r12,	r0	
 bfa:	04 00       	.word	0x0004;	????	
 bfc:	00 02       	.word	0x0200;	????	
 bfe:	01 ff       	and	r15,	r1	
 c00:	06 00       	.word	0x0006;	????	
 c02:	00 2c       	jc	$+2      	;abs 0xc04
 c04:	c7 2e       	jc	$-624    	;abs 0x994
 c06:	c7 2e       	jc	$-624    	;abs 0x996
 c08:	2e 2f       	jc	$-418    	;abs 0xa66
 c0a:	2e 2e       	jc	$-930    	;abs 0x868
 c0c:	2f 2e       	jc	$-928    	;abs 0x86c
 c0e:	2e 2f       	jc	$-418    	;abs 0xa6c
 c10:	67 63       	addc.b	#2,	r7	;r3 As==10
 c12:	63 2f       	jc	$-312    	;abs 0xada
 c14:	67 63       	addc.b	#2,	r7	;r3 As==10
 c16:	63 2f       	jc	$-312    	;abs 0xade
 c18:	63 6f       	.word	0x6f63;	????	Illegal as 2-op instr
 c1a:	6e 66       	addc.b	@r6,	r14	
 c1c:	69 67       	addc.b	@r7,	r9	
 c1e:	2f 6d       	addc	@r13,	r15	
 c20:	73 70       	.word	0x7073;	????	Illegal as 2-op instr
 c22:	34 33       	jn	$-406    	;abs 0xa8c
 c24:	30 2f       	jc	$-414    	;abs 0xa86
 c26:	63 72       	.word	0x7263;	????	Illegal as 2-op instr
 c28:	74 30       	jn	$+234    	;abs 0xd12
 c2a:	2e 53       	incd	r14		
 c2c:	00 2f       	jc	$-510    	;abs 0xa2e
 c2e:	68 6f       	addc.b	@r15,	r8	
 c30:	6d 65       	addc.b	@r5,	r13	
 c32:	2f 72       	subc	#4,	r15	;r2 As==10
 c34:	6f 62       	addc.b	#4,	r15	;r2 As==10
 c36:	65 72       	subc.b	#4,	r5	;r2 As==10
 c38:	74 69       	addc.b	@r9+,	r4	
 c3a:	6e 61       	addc.b	@r1,	r14	
 c3c:	6e 74       	subc.b	@r4,	r14	
 c3e:	2f 6d       	addc	@r13,	r15	
 c40:	73 70       	.word	0x7073;	????	Illegal as 2-op instr
 c42:	67 63       	addc.b	#2,	r7	;r3 As==10
 c44:	63 2f       	jc	$-312    	;abs 0xb0c
 c46:	42 55       	add.b	r5,	r2	
 c48:	49 4c       	mov.b	r12,	r9	
 c4a:	44 2f       	jc	$-374    	;abs 0xad4
 c4c:	67 63       	addc.b	#2,	r7	;r3 As==10
 c4e:	63 2f       	jc	$-312    	;abs 0xb16
 c50:	67 63       	addc.b	#2,	r7	;r3 As==10
 c52:	63 00       	.word	0x0063;	????	
 c54:	47 4e       	mov.b	r14,	r7	
 c56:	55 20       	jnz	$+172    	;abs 0xd02
 c58:	41 53       	add.b	#0,	r1	;r3 As==00
 c5a:	20 32       	jn	$-958    	;abs 0x89c
 c5c:	2e 32       	jn	$-930    	;abs 0x8ba
 c5e:	31 2e       	jc	$-924    	;abs 0x8c2
 c60:	31 00       	.word	0x0031;	????	
 c62:	01 80       	sub	r0,	r1	

Disassembly of section .debug_abbrev:

00000000 <.debug_abbrev>:
   0:	01 11       	rra	r1		
   2:	01 25       	jz	$+516    	;abs 0x206
   4:	0e 13       	reti			;return from interupt
   6:	0b 03       	.word	0x030b;	????	
   8:	0e 1b       	.word	0x1b0e;	????	
   a:	0e 11       	rra	r14		
   c:	01 52       	add	r2,	r1	
   e:	01 55       	add	r5,	r1	
  10:	06 10       	rrc	r6		
  12:	06 00       	.word	0x0006;	????	
  14:	00 02       	.word	0x0200;	????	
  16:	24 00       	.word	0x0024;	????	
  18:	0b 0b       	.word	0x0b0b;	????	
  1a:	3e 0b       	.word	0x0b3e;	????	
  1c:	03 0e       	.word	0x0e03;	????	
  1e:	00 00       	.word	0x0000;	????	
  20:	03 24       	jz	$+8      	;abs 0x28
  22:	00 0b       	.word	0x0b00;	????	
  24:	0b 3e       	jmp	$-1000   	;abs 0xfc3c
  26:	0b 03       	.word	0x030b;	????	
  28:	08 00       	.word	0x0008;	????	
  2a:	00 04       	.word	0x0400;	????	
  2c:	13 01       	.word	0x0113;	????	
  2e:	03 0e       	.word	0x0e03;	????	
  30:	0b 0b       	.word	0x0b0b;	????	
  32:	3a 0b       	.word	0x0b3a;	????	
  34:	3b 0b       	.word	0x0b3b;	????	
  36:	01 13       	reti			;return from interupt
  38:	00 00       	.word	0x0000;	????	
  3a:	05 0d       	.word	0x0d05;	????	
  3c:	00 03       	.word	0x0300;	????	
  3e:	0e 3a       	jl	$-994    	;abs 0xfc5c
  40:	0b 3b       	jl	$-488    	;abs 0xfe58
  42:	0b 49       	mov	r9,	r11	
  44:	13 38       	jl	$+40     	;abs 0x6c
  46:	0a 00       	.word	0x000a;	????	
  48:	00 06       	.word	0x0600;	????	
  4a:	0f 00       	.word	0x000f;	????	
  4c:	0b 0b       	.word	0x0b0b;	????	
  4e:	49 13       	.word	0x1349;	????	
  50:	00 00       	.word	0x0000;	????	
  52:	07 16       	.word	0x1607;	????	
  54:	00 03       	.word	0x0300;	????	
  56:	0e 3a       	jl	$-994    	;abs 0xfc74
  58:	0b 3b       	jl	$-488    	;abs 0xfe70
  5a:	0b 49       	mov	r9,	r11	
  5c:	13 00       	.word	0x0013;	????	
  5e:	00 08       	.word	0x0800;	????	
  60:	2e 00       	.word	0x002e;	????	
  62:	3f 0c       	.word	0x0c3f;	????	
  64:	03 0e       	.word	0x0e03;	????	
  66:	3a 0b       	.word	0x0b3a;	????	
  68:	3b 0b       	.word	0x0b3b;	????	
  6a:	27 0c       	.word	0x0c27;	????	
  6c:	49 13       	.word	0x1349;	????	
  6e:	11 01       	.word	0x0111;	????	
  70:	12 01       	.word	0x0112;	????	
  72:	40 06       	.word	0x0640;	????	
  74:	00 00       	.word	0x0000;	????	
  76:	09 2e       	jc	$-1004   	;abs 0xfc8a
  78:	01 3f       	jmp	$-508    	;abs 0xfe7c
  7a:	0c 03       	.word	0x030c;	????	
  7c:	0e 3a       	jl	$-994    	;abs 0xfc9a
  7e:	0b 3b       	jl	$-488    	;abs 0xfe96
  80:	0b 27       	jz	$-488    	;abs 0xfe98
  82:	0c 11       	rra	r12		
  84:	01 12       	push	r1		
  86:	01 40       	mov	r0,	r1	
  88:	06 01       	.word	0x0106;	????	
  8a:	13 00       	.word	0x0013;	????	
  8c:	00 0a       	.word	0x0a00;	????	
  8e:	05 00       	.word	0x0005;	????	
  90:	03 0e       	.word	0x0e03;	????	
  92:	3a 0b       	.word	0x0b3a;	????	
  94:	3b 0b       	.word	0x0b3b;	????	
  96:	49 13       	.word	0x1349;	????	
  98:	02 0a       	.word	0x0a02;	????	
  9a:	00 00       	.word	0x0000;	????	
  9c:	0b 2e       	jc	$-1000   	;abs 0xfcb4
  9e:	00 3f       	jmp	$-510    	;abs 0xfea0
  a0:	0c 03       	.word	0x030c;	????	
  a2:	0e 3a       	jl	$-994    	;abs 0xfcc0
  a4:	0b 3b       	jl	$-488    	;abs 0xfebc
  a6:	0b 27       	jz	$-488    	;abs 0xfebe
  a8:	0c 11       	rra	r12		
  aa:	01 12       	push	r1		
  ac:	01 40       	mov	r0,	r1	
  ae:	0a 00       	.word	0x000a;	????	
  b0:	00 0c       	.word	0x0c00;	????	
  b2:	34 00       	.word	0x0034;	????	
  b4:	03 0e       	.word	0x0e03;	????	
  b6:	3a 0b       	.word	0x0b3a;	????	
  b8:	3b 0b       	.word	0x0b3b;	????	
  ba:	49 13       	.word	0x1349;	????	
  bc:	02 0a       	.word	0x0a02;	????	
  be:	00 00       	.word	0x0000;	????	
  c0:	0d 34       	jge	$+28     	;abs 0xdc
  c2:	00 03       	.word	0x0300;	????	
  c4:	0e 3a       	jl	$-994    	;abs 0xfce2
  c6:	0b 3b       	jl	$-488    	;abs 0xfede
  c8:	0b 87       	sub	r7,	r11	
  ca:	40 0e       	.word	0x0e40;	????	
  cc:	49 13       	.word	0x1349;	????	
  ce:	3f 0c       	.word	0x0c3f;	????	
  d0:	3c 0c       	.word	0x0c3c;	????	
  d2:	00 00       	.word	0x0000;	????	
  d4:	0e 35       	jge	$+542    	;abs 0x2f2
  d6:	00 49       	br	r9		
  d8:	13 00       	.word	0x0013;	????	
  da:	00 0f       	.word	0x0f00;	????	
  dc:	34 00       	.word	0x0034;	????	
  de:	03 0e       	.word	0x0e03;	????	
  e0:	3a 0b       	.word	0x0b3a;	????	
  e2:	3b 05       	.word	0x053b;	????	
  e4:	87 40 0e 49 	mov	r0,	18702(r7);0x490e(r7)
  e8:	13 3f       	jmp	$-472    	;abs 0xff10
  ea:	0c 3c       	jmp	$+26     	;abs 0x104
  ec:	0c 00       	.word	0x000c;	????	
  ee:	00 10       	rrc	r0		
  f0:	26 00       	.word	0x0026;	????	
  f2:	49 13       	.word	0x1349;	????	
  f4:	00 00       	.word	0x0000;	????	
  f6:	11 34       	jge	$+36     	;abs 0x11a
  f8:	00 03       	.word	0x0300;	????	
  fa:	0e 3a       	jl	$-994    	;abs 0xfd18
  fc:	0b 3b       	jl	$-488    	;abs 0xff14
  fe:	0b 49       	mov	r9,	r11	
 100:	13 3f       	jmp	$-472    	;abs 0xff28
 102:	0c 02       	.word	0x020c;	????	
 104:	0a 00       	.word	0x000a;	????	
 106:	00 00       	.word	0x0000;	????	
 108:	01 11       	rra	r1		
 10a:	01 25       	jz	$+516    	;abs 0x30e
 10c:	0e 13       	reti			;return from interupt
 10e:	0b 03       	.word	0x030b;	????	
 110:	0e 1b       	.word	0x1b0e;	????	
 112:	0e 11       	rra	r14		
 114:	01 12       	push	r1		
 116:	01 10       	rrc	r1		
 118:	06 00       	.word	0x0006;	????	
 11a:	00 02       	.word	0x0200;	????	
 11c:	16 00       	.word	0x0016;	????	
 11e:	03 0e       	.word	0x0e03;	????	
 120:	3a 0b       	.word	0x0b3a;	????	
 122:	3b 0b       	.word	0x0b3b;	????	
 124:	49 13       	.word	0x1349;	????	
 126:	00 00       	.word	0x0000;	????	
 128:	03 0f       	.word	0x0f03;	????	
 12a:	00 0b       	.word	0x0b00;	????	
 12c:	0b 03       	.word	0x030b;	????	
 12e:	0e 00       	.word	0x000e;	????	
 130:	00 04       	.word	0x0400;	????	
 132:	2e 01       	.word	0x012e;	????	
 134:	03 0e       	.word	0x0e03;	????	
 136:	3a 0b       	.word	0x0b3a;	????	
 138:	3b 0b       	.word	0x0b3b;	????	
 13a:	27 0c       	.word	0x0c27;	????	
 13c:	11 01       	.word	0x0111;	????	
 13e:	12 01       	.word	0x0112;	????	
 140:	40 06       	.word	0x0640;	????	
 142:	01 13       	reti			;return from interupt
 144:	00 00       	.word	0x0000;	????	
 146:	05 05       	.word	0x0505;	????	
 148:	00 03       	.word	0x0300;	????	
 14a:	08 3a       	jl	$-1006   	;abs 0xfd5c
 14c:	0b 3b       	jl	$-488    	;abs 0xff64
 14e:	0b 49       	mov	r9,	r11	
 150:	13 02       	.word	0x0213;	????	
 152:	06 00       	.word	0x0006;	????	
 154:	00 06       	.word	0x0600;	????	
 156:	34 00       	.word	0x0034;	????	
 158:	03 08       	.word	0x0803;	????	
 15a:	3a 0b       	.word	0x0b3a;	????	
 15c:	3b 0b       	.word	0x0b3b;	????	
 15e:	49 13       	.word	0x1349;	????	
 160:	02 06       	.word	0x0602;	????	
 162:	00 00       	.word	0x0000;	????	
 164:	07 24       	jz	$+16     	;abs 0x174
 166:	00 0b       	.word	0x0b00;	????	
 168:	0b 3e       	jmp	$-1000   	;abs 0xfd80
 16a:	0b 03       	.word	0x030b;	????	
 16c:	0e 00       	.word	0x000e;	????	
 16e:	00 08       	.word	0x0800;	????	
 170:	0f 00       	.word	0x000f;	????	
 172:	0b 0b       	.word	0x0b0b;	????	
 174:	49 13       	.word	0x1349;	????	
 176:	00 00       	.word	0x0000;	????	
 178:	09 26       	jz	$-1004   	;abs 0xfd8c
 17a:	00 49       	br	r9		
 17c:	13 00       	.word	0x0013;	????	
 17e:	00 0a       	.word	0x0a00;	????	
 180:	2e 01       	.word	0x012e;	????	
 182:	03 0e       	.word	0x0e03;	????	
 184:	3a 0b       	.word	0x0b3a;	????	
 186:	3b 0b       	.word	0x0b3b;	????	
 188:	27 0c       	.word	0x0c27;	????	
 18a:	11 01       	.word	0x0111;	????	
 18c:	12 01       	.word	0x0112;	????	
 18e:	40 0a       	.word	0x0a40;	????	
 190:	01 13       	reti			;return from interupt
 192:	00 00       	.word	0x0000;	????	
 194:	0b 34       	jge	$+24     	;abs 0x1ac
 196:	00 03       	.word	0x0300;	????	
 198:	08 3a       	jl	$-1006   	;abs 0xfdaa
 19a:	0b 3b       	jl	$-488    	;abs 0xffb2
 19c:	0b 49       	mov	r9,	r11	
 19e:	13 02       	.word	0x0213;	????	
 1a0:	0a 00       	.word	0x000a;	????	
 1a2:	00 0c       	.word	0x0c00;	????	
 1a4:	01 01       	.word	0x0101;	????	
 1a6:	49 13       	.word	0x1349;	????	
 1a8:	01 13       	reti			;return from interupt
 1aa:	00 00       	.word	0x0000;	????	
 1ac:	0d 21       	jnz	$+540    	;abs 0x3c8
 1ae:	00 49       	br	r9		
 1b0:	13 2f       	jc	$-472    	;abs 0xffd8
 1b2:	0b 00       	.word	0x000b;	????	
 1b4:	00 0e       	.word	0x0e00;	????	
 1b6:	2e 01       	.word	0x012e;	????	
 1b8:	3f 0c       	.word	0x0c3f;	????	
 1ba:	03 0e       	.word	0x0e03;	????	
 1bc:	3a 0b       	.word	0x0b3a;	????	
 1be:	3b 0b       	.word	0x0b3b;	????	
 1c0:	27 0c       	.word	0x0c27;	????	
 1c2:	11 01       	.word	0x0111;	????	
 1c4:	12 01       	.word	0x0112;	????	
 1c6:	40 06       	.word	0x0640;	????	
 1c8:	01 13       	reti			;return from interupt
 1ca:	00 00       	.word	0x0000;	????	
 1cc:	0f 05       	.word	0x050f;	????	
 1ce:	00 03       	.word	0x0300;	????	
 1d0:	0e 3a       	jl	$-994    	;abs 0xfdee
 1d2:	0b 3b       	jl	$-488    	;abs 0xffea
 1d4:	0b 49       	mov	r9,	r11	
 1d6:	13 02       	.word	0x0213;	????	
 1d8:	06 00       	.word	0x0006;	????	
 1da:	00 10       	rrc	r0		
 1dc:	24 00       	.word	0x0024;	????	
 1de:	0b 0b       	.word	0x0b0b;	????	
 1e0:	3e 0b       	.word	0x0b3e;	????	
 1e2:	03 08       	.word	0x0803;	????	
 1e4:	00 00       	.word	0x0000;	????	
 1e6:	11 34       	jge	$+36     	;abs 0x20a
 1e8:	00 03       	.word	0x0300;	????	
 1ea:	0e 3a       	jl	$-994    	;abs 0xfe08
 1ec:	0b 3b       	jl	$-488    	;abs 0x4
 1ee:	0b 49       	mov	r9,	r11	
 1f0:	13 02       	.word	0x0213;	????	
 1f2:	0a 00       	.word	0x000a;	????	
 1f4:	00 12       	push	r0		
 1f6:	18 00       	.word	0x0018;	????	
 1f8:	00 00       	.word	0x0000;	????	
 1fa:	13 0a       	.word	0x0a13;	????	
 1fc:	00 03       	.word	0x0300;	????	
 1fe:	0e 3a       	jl	$-994    	;abs 0xfe1c
 200:	0b 3b       	jl	$-488    	;abs 0x18
 202:	0b 11       	rra	r11		
 204:	01 00       	.word	0x0001;	????	
 206:	00 00       	.word	0x0000;	????	
 208:	01 11       	rra	r1		
 20a:	01 25       	jz	$+516    	;abs 0x40e
 20c:	0e 13       	reti			;return from interupt
 20e:	0b 03       	.word	0x030b;	????	
 210:	0e 1b       	.word	0x1b0e;	????	
 212:	0e 11       	rra	r14		
 214:	01 12       	push	r1		
 216:	01 10       	rrc	r1		
 218:	06 00       	.word	0x0006;	????	
 21a:	00 02       	.word	0x0200;	????	
 21c:	2e 01       	.word	0x012e;	????	
 21e:	3f 0c       	.word	0x0c3f;	????	
 220:	03 0e       	.word	0x0e03;	????	
 222:	3a 0b       	.word	0x0b3a;	????	
 224:	3b 0b       	.word	0x0b3b;	????	
 226:	27 0c       	.word	0x0c27;	????	
 228:	11 01       	.word	0x0111;	????	
 22a:	12 01       	.word	0x0112;	????	
 22c:	40 0a       	.word	0x0a40;	????	
 22e:	01 13       	reti			;return from interupt
 230:	00 00       	.word	0x0000;	????	
 232:	03 05       	.word	0x0503;	????	
 234:	00 03       	.word	0x0300;	????	
 236:	08 3a       	jl	$-1006   	;abs 0xfe48
 238:	0b 3b       	jl	$-488    	;abs 0x50
 23a:	0b 49       	mov	r9,	r11	
 23c:	13 02       	.word	0x0213;	????	
 23e:	06 00       	.word	0x0006;	????	
 240:	00 04       	.word	0x0400;	????	
 242:	24 00       	.word	0x0024;	????	
 244:	0b 0b       	.word	0x0b0b;	????	
 246:	3e 0b       	.word	0x0b3e;	????	
 248:	03 0e       	.word	0x0e03;	????	
 24a:	00 00       	.word	0x0000;	????	
 24c:	05 2e       	jc	$-1012   	;abs 0xfe58
 24e:	00 3f       	jmp	$-510    	;abs 0x50
 250:	0c 03       	.word	0x030c;	????	
 252:	0e 3a       	jl	$-994    	;abs 0xfe70
 254:	0b 3b       	jl	$-488    	;abs 0x6c
 256:	0b 49       	mov	r9,	r11	
 258:	13 11       	rra	#1		;r3 As==01
 25a:	01 12       	push	r1		
 25c:	01 40       	mov	r0,	r1	
 25e:	0a 00       	.word	0x000a;	????	
 260:	00 00       	.word	0x0000;	????	
 262:	01 11       	rra	r1		
 264:	01 25       	jz	$+516    	;abs 0x468
 266:	0e 13       	reti			;return from interupt
 268:	0b 03       	.word	0x030b;	????	
 26a:	0e 1b       	.word	0x1b0e;	????	
 26c:	0e 11       	rra	r14		
 26e:	01 12       	push	r1		
 270:	01 10       	rrc	r1		
 272:	06 00       	.word	0x0006;	????	
 274:	00 02       	.word	0x0200;	????	
 276:	24 00       	.word	0x0024;	????	
 278:	0b 0b       	.word	0x0b0b;	????	
 27a:	3e 0b       	.word	0x0b3e;	????	
 27c:	03 0e       	.word	0x0e03;	????	
 27e:	00 00       	.word	0x0000;	????	
 280:	03 24       	jz	$+8      	;abs 0x288
 282:	00 0b       	.word	0x0b00;	????	
 284:	0b 3e       	jmp	$-1000   	;abs 0xfe9c
 286:	0b 03       	.word	0x030b;	????	
 288:	08 00       	.word	0x0008;	????	
 28a:	00 04       	.word	0x0400;	????	
 28c:	2e 01       	.word	0x012e;	????	
 28e:	3f 0c       	.word	0x0c3f;	????	
 290:	03 0e       	.word	0x0e03;	????	
 292:	3a 0b       	.word	0x0b3a;	????	
 294:	3b 0b       	.word	0x0b3b;	????	
 296:	27 0c       	.word	0x0c27;	????	
 298:	11 01       	.word	0x0111;	????	
 29a:	12 01       	.word	0x0112;	????	
 29c:	40 0a       	.word	0x0a40;	????	
 29e:	01 13       	reti			;return from interupt
 2a0:	00 00       	.word	0x0000;	????	
 2a2:	05 05       	.word	0x0505;	????	
 2a4:	00 03       	.word	0x0300;	????	
 2a6:	0e 3a       	jl	$-994    	;abs 0xfec4
 2a8:	0b 3b       	jl	$-488    	;abs 0xc0
 2aa:	0b 49       	mov	r9,	r11	
 2ac:	13 02       	.word	0x0213;	????	
 2ae:	0a 00       	.word	0x000a;	????	
 2b0:	00 06       	.word	0x0600;	????	
 2b2:	05 00       	.word	0x0005;	????	
 2b4:	03 0e       	.word	0x0e03;	????	
 2b6:	3a 0b       	.word	0x0b3a;	????	
 2b8:	3b 0b       	.word	0x0b3b;	????	
 2ba:	49 13       	.word	0x1349;	????	
 2bc:	02 06       	.word	0x0602;	????	
 2be:	00 00       	.word	0x0000;	????	
 2c0:	07 2e       	jc	$-1008   	;abs 0xfed0
 2c2:	00 3f       	jmp	$-510    	;abs 0xc4
 2c4:	0c 03       	.word	0x030c;	????	
 2c6:	0e 3a       	jl	$-994    	;abs 0xfee4
 2c8:	0b 3b       	jl	$-488    	;abs 0xe0
 2ca:	0b 49       	mov	r9,	r11	
 2cc:	13 11       	rra	#1		;r3 As==01
 2ce:	01 12       	push	r1		
 2d0:	01 40       	mov	r0,	r1	
 2d2:	0a 00       	.word	0x000a;	????	
 2d4:	00 08       	.word	0x0800;	????	
 2d6:	34 00       	.word	0x0034;	????	
 2d8:	03 0e       	.word	0x0e03;	????	
 2da:	3a 0b       	.word	0x0b3a;	????	
 2dc:	3b 0b       	.word	0x0b3b;	????	
 2de:	87 40 0e 49 	mov	r0,	18702(r7);0x490e(r7)
 2e2:	13 3f       	jmp	$-472    	;abs 0x10a
 2e4:	0c 3c       	jmp	$+26     	;abs 0x2fe
 2e6:	0c 00       	.word	0x000c;	????	
 2e8:	00 09       	.word	0x0900;	????	
 2ea:	35 00       	.word	0x0035;	????	
 2ec:	49 13       	.word	0x1349;	????	
 2ee:	00 00       	.word	0x0000;	????	
 2f0:	0a 34       	jge	$+22     	;abs 0x306
 2f2:	00 03       	.word	0x0300;	????	
 2f4:	0e 3a       	jl	$-994    	;abs 0xff12
 2f6:	0b 3b       	jl	$-488    	;abs 0x10e
 2f8:	05 87       	sub	r7,	r5	
 2fa:	40 0e       	.word	0x0e40;	????	
 2fc:	49 13       	.word	0x1349;	????	
 2fe:	3f 0c       	.word	0x0c3f;	????	
 300:	3c 0c       	.word	0x0c3c;	????	
 302:	00 00       	.word	0x0000;	????	
 304:	0b 26       	jz	$-1000   	;abs 0xff1c
 306:	00 49       	br	r9		
 308:	13 00       	.word	0x0013;	????	
 30a:	00 00       	.word	0x0000;	????	
 30c:	01 11       	rra	r1		
 30e:	00 10       	rrc	r0		
 310:	06 11       	rra	r6		
 312:	01 12       	push	r1		
 314:	01 03       	.word	0x0301;	????	
 316:	08 1b       	.word	0x1b08;	????	
 318:	08 25       	jz	$+530    	;abs 0x52a
 31a:	08 13       	reti			;return from interupt
 31c:	05 00       	.word	0x0005;	????	
 31e:	00 00       	.word	0x0000;	????	
 320:	01 11       	rra	r1		
 322:	00 10       	rrc	r0		
 324:	06 11       	rra	r6		
 326:	01 12       	push	r1		
 328:	01 03       	.word	0x0301;	????	
 32a:	08 1b       	.word	0x1b08;	????	
 32c:	08 25       	jz	$+530    	;abs 0x53e
 32e:	08 13       	reti			;return from interupt
 330:	05 00       	.word	0x0005;	????	
 332:	00 00       	.word	0x0000;	????	
 334:	01 11       	rra	r1		
 336:	01 25       	jz	$+516    	;abs 0x53a
 338:	0e 13       	reti			;return from interupt
 33a:	0b 03       	.word	0x030b;	????	
 33c:	0e 1b       	.word	0x1b0e;	????	
 33e:	0e 11       	rra	r14		
 340:	01 12       	push	r1		
 342:	01 10       	rrc	r1		
 344:	06 00       	.word	0x0006;	????	
 346:	00 02       	.word	0x0200;	????	
 348:	24 00       	.word	0x0024;	????	
 34a:	0b 0b       	.word	0x0b0b;	????	
 34c:	3e 0b       	.word	0x0b3e;	????	
 34e:	03 0e       	.word	0x0e03;	????	
 350:	00 00       	.word	0x0000;	????	
 352:	03 16       	.word	0x1603;	????	
 354:	00 03       	.word	0x0300;	????	
 356:	0e 3a       	jl	$-994    	;abs 0xff74
 358:	0b 3b       	jl	$-488    	;abs 0x170
 35a:	0b 49       	mov	r9,	r11	
 35c:	13 00       	.word	0x0013;	????	
 35e:	00 04       	.word	0x0400;	????	
 360:	24 00       	.word	0x0024;	????	
 362:	0b 0b       	.word	0x0b0b;	????	
 364:	3e 0b       	.word	0x0b3e;	????	
 366:	03 08       	.word	0x0803;	????	
 368:	00 00       	.word	0x0000;	????	
 36a:	05 2e       	jc	$-1012   	;abs 0xff76
 36c:	01 3f       	jmp	$-508    	;abs 0x170
 36e:	0c 03       	.word	0x030c;	????	
 370:	0e 3a       	jl	$-994    	;abs 0xff8e
 372:	0b 3b       	jl	$-488    	;abs 0x18a
 374:	0b 27       	jz	$-488    	;abs 0x18c
 376:	0c 49       	mov	r9,	r12	
 378:	13 11       	rra	#1		;r3 As==01
 37a:	01 12       	push	r1		
 37c:	01 40       	mov	r0,	r1	
 37e:	06 01       	.word	0x0106;	????	
 380:	13 00       	.word	0x0013;	????	
 382:	00 06       	.word	0x0600;	????	
 384:	05 00       	.word	0x0005;	????	
 386:	03 0e       	.word	0x0e03;	????	
 388:	3a 0b       	.word	0x0b3a;	????	
 38a:	3b 0b       	.word	0x0b3b;	????	
 38c:	49 13       	.word	0x1349;	????	
 38e:	02 06       	.word	0x0602;	????	
 390:	00 00       	.word	0x0000;	????	
 392:	07 34       	jge	$+16     	;abs 0x3a2
 394:	00 03       	.word	0x0300;	????	
 396:	0e 3a       	jl	$-994    	;abs 0xffb4
 398:	0b 3b       	jl	$-488    	;abs 0x1b0
 39a:	0b 49       	mov	r9,	r11	
 39c:	13 02       	.word	0x0213;	????	
 39e:	0a 00       	.word	0x000a;	????	
 3a0:	00 08       	.word	0x0800;	????	
 3a2:	34 00       	.word	0x0034;	????	
 3a4:	03 0e       	.word	0x0e03;	????	
 3a6:	3a 0b       	.word	0x0b3a;	????	
 3a8:	3b 0b       	.word	0x0b3b;	????	
 3aa:	49 13       	.word	0x1349;	????	
 3ac:	02 06       	.word	0x0602;	????	
 3ae:	00 00       	.word	0x0000;	????	
 3b0:	09 34       	jge	$+20     	;abs 0x3c4
 3b2:	00 03       	.word	0x0300;	????	
 3b4:	08 3a       	jl	$-1006   	;abs 0xffc6
 3b6:	0b 3b       	jl	$-488    	;abs 0x1ce
 3b8:	0b 49       	mov	r9,	r11	
 3ba:	13 00       	.word	0x0013;	????	
 3bc:	00 0a       	.word	0x0a00;	????	
 3be:	34 00       	.word	0x0034;	????	
 3c0:	03 08       	.word	0x0803;	????	
 3c2:	3a 0b       	.word	0x0b3a;	????	
 3c4:	3b 0b       	.word	0x0b3b;	????	
 3c6:	49 13       	.word	0x1349;	????	
 3c8:	02 06       	.word	0x0602;	????	
 3ca:	00 00       	.word	0x0000;	????	
 3cc:	0b 0b       	.word	0x0b0b;	????	
 3ce:	01 55       	add	r5,	r1	
 3d0:	06 00       	.word	0x0006;	????	
 3d2:	00 0c       	.word	0x0c00;	????	
 3d4:	0f 00       	.word	0x000f;	????	
 3d6:	0b 0b       	.word	0x0b0b;	????	
 3d8:	00 00       	.word	0x0000;	????	
 3da:	0d 0f       	.word	0x0f0d;	????	
 3dc:	00 0b       	.word	0x0b00;	????	
 3de:	0b 49       	mov	r9,	r11	
 3e0:	13 00       	.word	0x0013;	????	
 3e2:	00 0e       	.word	0x0e00;	????	
 3e4:	2e 01       	.word	0x012e;	????	
 3e6:	3f 0c       	.word	0x0c3f;	????	
 3e8:	03 0e       	.word	0x0e03;	????	
 3ea:	3a 0b       	.word	0x0b3a;	????	
 3ec:	3b 0b       	.word	0x0b3b;	????	
 3ee:	27 0c       	.word	0x0c27;	????	
 3f0:	11 01       	.word	0x0111;	????	
 3f2:	12 01       	.word	0x0112;	????	
 3f4:	40 0a       	.word	0x0a40;	????	
 3f6:	01 13       	reti			;return from interupt
 3f8:	00 00       	.word	0x0000;	????	
 3fa:	0f 05       	.word	0x050f;	????	
 3fc:	00 03       	.word	0x0300;	????	
 3fe:	08 3a       	jl	$-1006   	;abs 0x10
 400:	0b 3b       	jl	$-488    	;abs 0x218
 402:	0b 49       	mov	r9,	r11	
 404:	13 02       	.word	0x0213;	????	
 406:	0a 00       	.word	0x000a;	????	
 408:	00 10       	rrc	r0		
 40a:	34 00       	.word	0x0034;	????	
 40c:	03 08       	.word	0x0803;	????	
 40e:	3a 0b       	.word	0x0b3a;	????	
 410:	3b 0b       	.word	0x0b3b;	????	
 412:	49 13       	.word	0x1349;	????	
 414:	02 0a       	.word	0x0a02;	????	
 416:	00 00       	.word	0x0000;	????	
 418:	11 01       	.word	0x0111;	????	
 41a:	01 49       	mov	r9,	r1	
 41c:	13 01       	.word	0x0113;	????	
 41e:	13 00       	.word	0x0013;	????	
 420:	00 12       	push	r0		
 422:	21 00       	.word	0x0021;	????	
 424:	00 00       	.word	0x0000;	????	
 426:	13 34       	jge	$+40     	;abs 0x44e
 428:	00 03       	.word	0x0300;	????	
 42a:	0e 3a       	jl	$-994    	;abs 0x48
 42c:	0b 3b       	jl	$-488    	;abs 0x244
 42e:	0b 49       	mov	r9,	r11	
 430:	13 3f       	jmp	$-472    	;abs 0x258
 432:	0c 3c       	jmp	$+26     	;abs 0x44c
 434:	0c 00       	.word	0x000c;	????	
 436:	00 00       	.word	0x0000;	????	
 438:	01 11       	rra	r1		
 43a:	00 10       	rrc	r0		
 43c:	06 11       	rra	r6		
 43e:	01 12       	push	r1		
 440:	01 03       	.word	0x0301;	????	
 442:	08 1b       	.word	0x1b08;	????	
 444:	08 25       	jz	$+530    	;abs 0x656
 446:	08 13       	reti			;return from interupt
 448:	05 00       	.word	0x0005;	????	
 44a:	00 00       	.word	0x0000;	????	
 44c:	01 11       	rra	r1		
 44e:	00 10       	rrc	r0		
 450:	06 11       	rra	r6		
 452:	01 12       	push	r1		
 454:	01 03       	.word	0x0301;	????	
 456:	08 1b       	.word	0x1b08;	????	
 458:	08 25       	jz	$+530    	;abs 0x66a
 45a:	08 13       	reti			;return from interupt
 45c:	05 00       	.word	0x0005;	????	
 45e:	00 00       	.word	0x0000;	????	
 460:	01 11       	rra	r1		
 462:	00 10       	rrc	r0		
 464:	06 11       	rra	r6		
 466:	01 12       	push	r1		
 468:	01 03       	.word	0x0301;	????	
 46a:	08 1b       	.word	0x1b08;	????	
 46c:	08 25       	jz	$+530    	;abs 0x67e
 46e:	08 13       	reti			;return from interupt
 470:	05 00       	.word	0x0005;	????	
 472:	00 00       	.word	0x0000;	????	
 474:	01 11       	rra	r1		
 476:	00 10       	rrc	r0		
 478:	06 11       	rra	r6		
 47a:	01 12       	push	r1		
 47c:	01 03       	.word	0x0301;	????	
 47e:	08 1b       	.word	0x1b08;	????	
 480:	08 25       	jz	$+530    	;abs 0x692
 482:	08 13       	reti			;return from interupt
 484:	05 00       	.word	0x0005;	????	
 486:	00 00       	.word	0x0000;	????	
 488:	01 11       	rra	r1		
 48a:	00 10       	rrc	r0		
 48c:	06 11       	rra	r6		
 48e:	01 12       	push	r1		
 490:	01 03       	.word	0x0301;	????	
 492:	08 1b       	.word	0x1b08;	????	
 494:	08 25       	jz	$+530    	;abs 0x6a6
 496:	08 13       	reti			;return from interupt
 498:	05 00       	.word	0x0005;	????	
 49a:	00 00       	.word	0x0000;	????	
 49c:	01 11       	rra	r1		
 49e:	00 10       	rrc	r0		
 4a0:	06 11       	rra	r6		
 4a2:	01 12       	push	r1		
 4a4:	01 03       	.word	0x0301;	????	
 4a6:	08 1b       	.word	0x1b08;	????	
 4a8:	08 25       	jz	$+530    	;abs 0x6ba
 4aa:	08 13       	reti			;return from interupt
 4ac:	05 00       	.word	0x0005;	????	
	...

Disassembly of section .debug_line:

00000000 <.debug_line>:
   0:	07 01       	.word	0x0107;	????	
   2:	00 00       	.word	0x0000;	????	
   4:	02 00       	.word	0x0002;	????	
   6:	95 00       	.word	0x0095;	????	
   8:	00 00       	.word	0x0000;	????	
   a:	01 01       	.word	0x0101;	????	
   c:	fb 0e       	.word	0x0efb;	????	
   e:	0d 00       	.word	0x000d;	????	
  10:	01 01       	.word	0x0101;	????	
  12:	01 01       	.word	0x0101;	????	
  14:	00 00       	.word	0x0000;	????	
  16:	00 01       	.word	0x0100;	????	
  18:	00 00       	.word	0x0000;	????	
  1a:	01 2f       	jc	$-508    	;abs 0xfe1e
  1c:	68 6f       	addc.b	@r15,	r8	
  1e:	6d 65       	addc.b	@r5,	r13	
  20:	2f 62       	addc	#4,	r15	;r2 As==10
  22:	72 79       	subc.b	@r9+,	r2	
  24:	61 6e       	addc.b	@r14,	r1	
  26:	2f 2e       	jc	$-928    	;abs 0xfc86
  28:	6c 6f       	addc.b	@r15,	r12	
  2a:	63 61       	.word	0x6163;	????	Illegal as 2-op instr
  2c:	6c 2f       	jc	$-294    	;abs 0xff06
  2e:	65 6e       	addc.b	@r14,	r5	
  30:	65 72       	subc.b	#4,	r5	;r2 As==10
  32:	67 69       	addc.b	@r9,	r7	
  34:	61 2f       	jc	$-316    	;abs 0xfef8
  36:	68 61       	addc.b	@r1,	r8	
  38:	72 64       	addc.b	@r4+,	r2	
  3a:	77 61       	addc.b	@r1+,	r7	
  3c:	72 65       	addc.b	@r5+,	r2	
  3e:	2f 74       	subc	@r4,	r15	
  40:	6f 6f       	addc.b	@r15,	r15	
  42:	6c 73       	subc.b	#2,	r12	;r3 As==10
  44:	2f 6d       	addc	@r13,	r15	
  46:	73 70       	.word	0x7073;	????	Illegal as 2-op instr
  48:	34 33       	jn	$-406    	;abs 0xfeb2
  4a:	30 2f       	jc	$-414    	;abs 0xfeac
  4c:	62 69       	addc.b	@r9,	r2	
  4e:	6e 2f       	jc	$-290    	;abs 0xff2c
  50:	2e 2e       	jc	$-930    	;abs 0xfcae
  52:	2f 6c       	addc	@r12,	r15	
  54:	69 62       	addc.b	#4,	r9	;r2 As==10
  56:	2f 67       	addc	@r7,	r15	
  58:	63 63       	.word	0x6363;	????	Illegal as 2-op instr
  5a:	2f 6d       	addc	@r13,	r15	
  5c:	73 70       	.word	0x7073;	????	Illegal as 2-op instr
  5e:	34 33       	jn	$-406    	;abs 0xfec8
  60:	30 2f       	jc	$-414    	;abs 0xfec2
  62:	34 2e       	jc	$-918    	;abs 0xfccc
  64:	36 2e       	jc	$-914    	;abs 0xfcd2
  66:	33 2f       	jc	$-408    	;abs 0xfece
  68:	2e 2e       	jc	$-930    	;abs 0xfcc6
  6a:	2f 2e       	jc	$-928    	;abs 0xfcca
  6c:	2e 2f       	jc	$-418    	;abs 0xfeca
  6e:	2e 2e       	jc	$-930    	;abs 0xfccc
  70:	2f 2e       	jc	$-928    	;abs 0xfcd0
  72:	2e 2f       	jc	$-418    	;abs 0xfed0
  74:	6d 73       	subc.b	#2,	r13	;r3 As==10
  76:	70 34       	jge	$+226    	;abs 0x158
  78:	33 30       	jn	$+104    	;abs 0xe0
  7a:	2f 69       	addc	@r9,	r15	
  7c:	6e 63       	addc.b	#2,	r14	;r3 As==10
  7e:	6c 75       	subc.b	@r5,	r12	
  80:	64 65       	addc.b	@r5,	r4	
  82:	00 00       	.word	0x0000;	????	
  84:	70 6f       	addc.b	@r15+,	r0	
  86:	74 2e       	jc	$-790    	;abs 0xfd70
  88:	63 00       	.word	0x0063;	????	
  8a:	00 00       	.word	0x0000;	????	
  8c:	00 6d       	addc	r13,	r0	
  8e:	73 70       	.word	0x7073;	????	Illegal as 2-op instr
  90:	34 33       	jn	$-406    	;abs 0xfefa
  92:	30 67       	addc	@r7+,	r0	
  94:	32 35       	jge	$+614    	;abs 0x2fa
  96:	35 33       	jn	$-404    	;abs 0xff02
  98:	2e 68       	addc	@r8,	r14	
  9a:	00 01       	.word	0x0100;	????	
  9c:	00 00       	.word	0x0000;	????	
  9e:	00 00       	.word	0x0000;	????	
  a0:	03 02       	.word	0x0203;	????	
  a2:	3e c0 03 12 	bic	#4611,	r14	;#0x1203
  a6:	01 13       	reti			;return from interupt
  a8:	9f 67 83 85 	addc	-31357(r7),-24670(r15);0x8583(r7), 0x9fa2(r15)
  ac:	a2 9f 
  ae:	83 bc       	bit	r12,	#1	;r3 As==01
  b0:	67 4b       	mov.b	@r11,	r7	
  b2:	9f 9f 9f bd 	cmp	-16993(r15),75(r15)	;0xbd9f(r15), 0x004b(r15)
  b6:	4b 00 
  b8:	02 04       	.word	0x0402;	????	
  ba:	01 30       	jn	$+4      	;abs 0xbe
  bc:	00 02       	.word	0x0200;	????	
  be:	04 01       	.word	0x0104;	????	
  c0:	9f 00       	.word	0x009f;	????	
  c2:	02 04       	.word	0x0402;	????	
  c4:	01 67       	addc	r7,	r1	
  c6:	00 02       	.word	0x0200;	????	
  c8:	04 01       	.word	0x0104;	????	
  ca:	bb 00       	.word	0x00bb;	????	
  cc:	02 04       	.word	0x0402;	????	
  ce:	01 68       	addc	r8,	r1	
  d0:	00 02       	.word	0x0200;	????	
  d2:	04 01       	.word	0x0104;	????	
  d4:	67 00       	.word	0x0067;	????	
  d6:	02 04       	.word	0x0402;	????	
  d8:	01 67       	addc	r7,	r1	
  da:	02 02       	.word	0x0202;	????	
  dc:	00 01       	.word	0x0100;	????	
  de:	01 00       	.word	0x0001;	????	
  e0:	03 02       	.word	0x0203;	????	
  e2:	fa c0 03 36 	bic.b	#13827,	-24831(r10);#0x3603, 0x9f01(r10)
  e6:	01 9f 
  e8:	bb 67 00 02 	addc	@r7+,	512(r11);0x0200(r11)
  ec:	04 01       	.word	0x0104;	????	
  ee:	06 2e       	jc	$-1010   	;abs 0xfcfc
  f0:	06 bb       	bit	r11,	r6	
  f2:	4b 4b       	mov.b	r11,	r11	
  f4:	83 bc       	bit	r12,	#1	;r3 As==01
  f6:	a0 02       	.word	0x02a0;	????	
  f8:	32 13       	reti			;return from interupt
  fa:	9f 9f 4d 14 	cmp	5197(r15),-24527(r15);0x144d(r15), 0xa031(r15)
  fe:	31 a0 
 100:	bb 9f bb 67 	cmp	@r15+,	26555(r11);0x67bb(r11)
 104:	83 bc       	bit	r12,	#1	;r3 As==01
 106:	02 0c       	.word	0x0c02;	????	
 108:	00 01       	.word	0x0100;	????	
 10a:	01 3a       	jl	$-1020   	;abs 0xfd0e
 10c:	01 00       	.word	0x0001;	????	
 10e:	00 02       	.word	0x0200;	????	
 110:	00 7f       	subc	r15,	r0	
 112:	00 00       	.word	0x0000;	????	
 114:	00 01       	.word	0x0100;	????	
 116:	01 fb       	and	r11,	r1	
 118:	0e 0d       	.word	0x0d0e;	????	
 11a:	00 01       	.word	0x0100;	????	
 11c:	01 01       	.word	0x0101;	????	
 11e:	01 00       	.word	0x0001;	????	
 120:	00 00       	.word	0x0000;	????	
 122:	01 00       	.word	0x0001;	????	
 124:	00 01       	.word	0x0100;	????	
 126:	2f 68       	addc	@r8,	r15	
 128:	6f 6d       	addc.b	@r13,	r15	
 12a:	65 2f       	jc	$-308    	;abs 0xfff6
 12c:	62 72       	subc.b	#4,	r2	;r2 As==10
 12e:	79 61       	addc.b	@r1+,	r9	
 130:	6e 2f       	jc	$-290    	;abs 0xe
 132:	2e 6c       	addc	@r12,	r14	
 134:	6f 63       	addc.b	#2,	r15	;r3 As==10
 136:	61 6c       	addc.b	@r12,	r1	
 138:	2f 65       	addc	@r5,	r15	
 13a:	6e 65       	addc.b	@r5,	r14	
 13c:	72 67       	addc.b	@r7+,	r2	
 13e:	69 61       	addc.b	@r1,	r9	
 140:	2f 68       	addc	@r8,	r15	
 142:	61 72       	subc.b	#4,	r1	;r2 As==10
 144:	64 77       	subc.b	@r7,	r4	
 146:	61 72       	subc.b	#4,	r1	;r2 As==10
 148:	65 2f       	jc	$-308    	;abs 0x14
 14a:	74 6f       	addc.b	@r15+,	r4	
 14c:	6f 6c       	addc.b	@r12,	r15	
 14e:	73 2f       	jc	$-280    	;abs 0x36
 150:	6d 73       	subc.b	#2,	r13	;r3 As==10
 152:	70 34       	jge	$+226    	;abs 0x234
 154:	33 30       	jn	$+104    	;abs 0x1bc
 156:	2f 62       	addc	#4,	r15	;r2 As==10
 158:	69 6e       	addc.b	@r14,	r9	
 15a:	2f 2e       	jc	$-928    	;abs 0xfdba
 15c:	2e 2f       	jc	$-418    	;abs 0xffba
 15e:	6c 69       	addc.b	@r9,	r12	
 160:	62 2f       	jc	$-314    	;abs 0x26
 162:	67 63       	addc.b	#2,	r7	;r3 As==10
 164:	63 2f       	jc	$-312    	;abs 0x2c
 166:	6d 73       	subc.b	#2,	r13	;r3 As==10
 168:	70 34       	jge	$+226    	;abs 0x24a
 16a:	33 30       	jn	$+104    	;abs 0x1d2
 16c:	2f 34       	jge	$+96     	;abs 0x1cc
 16e:	2e 36       	jge	$-930    	;abs 0xfdcc
 170:	2e 33       	jn	$-418    	;abs 0xffce
 172:	2f 69       	addc	@r9,	r15	
 174:	6e 63       	addc.b	#2,	r14	;r3 As==10
 176:	6c 75       	subc.b	@r5,	r12	
 178:	64 65       	addc.b	@r5,	r4	
 17a:	00 00       	.word	0x0000;	????	
 17c:	63 6f       	.word	0x6f63;	????	Illegal as 2-op instr
 17e:	6e 69       	addc.b	@r9,	r14	
 180:	6f 2e       	jc	$-800    	;abs 0xfe60
 182:	63 00       	.word	0x0063;	????	
 184:	00 00       	.word	0x0000;	????	
 186:	00 73       	sbc	r0		
 188:	74 64       	addc.b	@r4+,	r4	
 18a:	61 72       	subc.b	#4,	r1	;r2 As==10
 18c:	67 2e       	jc	$-816    	;abs 0xfe5c
 18e:	68 00       	.word	0x0068;	????	
 190:	01 00       	.word	0x0001;	????	
 192:	00 00       	.word	0x0000;	????	
 194:	00 03       	.word	0x0300;	????	
 196:	02 e8       	xor	r8,	r2	
 198:	c1 03       	.word	0x03c1;	????	
 19a:	d9 00       	.word	0x00d9;	????	
 19c:	01 f6       	and	r6,	r1	
 19e:	00 02       	.word	0x0200;	????	
 1a0:	04 02       	.word	0x0204;	????	
 1a2:	9f 00       	.word	0x009f;	????	
 1a4:	02 04       	.word	0x0402;	????	
 1a6:	01 06       	.word	0x0601;	????	
 1a8:	2e 06       	.word	0x062e;	????	
 1aa:	bc 4b 4b 00 	mov	@r11+,	75(r12)	;0x004b(r12)
 1ae:	02 04       	.word	0x0402;	????	
 1b0:	02 06       	.word	0x0602;	????	
 1b2:	2e 00       	.word	0x002e;	????	
 1b4:	02 04       	.word	0x0402;	????	
 1b6:	01 66       	addc	r6,	r1	
 1b8:	06 bb       	bit	r11,	r6	
 1ba:	4b d8       	bis.b	r8,	r11	
 1bc:	83 03       	.word	0x0383;	????	
 1be:	6c ba       	bit.b	@r10,	r12	
 1c0:	14 bb 03 42 	bit	16899(r11),r4	;0x4203(r11)
 1c4:	2e 4d       	mov	@r13,	r14	
 1c6:	2f 00       	.word	0x002f;	????	
 1c8:	02 04       	.word	0x0402;	????	
 1ca:	01 49       	mov	r9,	r1	
 1cc:	69 4d       	mov.b	@r13,	r9	
 1ce:	bf f3 83 00 	and	#-1,	131(r15);r3 As==11, 0x0083(r15)
 1d2:	02 04       	.word	0x0402;	????	
 1d4:	01 32       	jn	$-1020   	;abs 0xfdd8
 1d6:	00 02       	.word	0x0200;	????	
 1d8:	04 01       	.word	0x0104;	????	
 1da:	08 21       	jnz	$+530    	;abs 0x3ec
 1dc:	00 02       	.word	0x0200;	????	
 1de:	04 01       	.word	0x0104;	????	
 1e0:	b8 00       	.word	0x00b8;	????	
 1e2:	02 04       	.word	0x0402;	????	
 1e4:	02 06       	.word	0x0602;	????	
 1e6:	82 06       	.word	0x0682;	????	
 1e8:	4f 00       	.word	0x004f;	????	
 1ea:	02 04       	.word	0x0402;	????	
 1ec:	02 03       	.word	0x0302;	????	
 1ee:	70 66       	addc.b	@r6+,	r0	
 1f0:	00 02       	.word	0x0200;	????	
 1f2:	04 02       	.word	0x0204;	????	
 1f4:	03 11       	rra	#0		;r3 As==00
 1f6:	82 00       	.word	0x0082;	????	
 1f8:	02 04       	.word	0x0402;	????	
 1fa:	01 06       	.word	0x0601;	????	
 1fc:	66 00       	.word	0x0066;	????	
 1fe:	02 04       	.word	0x0402;	????	
 200:	01 06       	.word	0x0601;	????	
 202:	49 69       	rlc.b	r9		
 204:	bd 69 4b 08 	addc	@r9+,	2123(r13);0x084b(r13)
 208:	59 68 7e 6e 	addc.b	28286(r8),r9	;0x6e7e(r8)
 20c:	03 29       	jnc	$+520    	;abs 0x414
 20e:	66 fa       	and.b	@r10,	r6	
 210:	2f 67       	addc	@r7,	r15	
 212:	02 44       	mov	r4,	r2	
 214:	14 bd bb 31 	bit	12731(r13),r4	;0x31bb(r13)
 218:	67 00       	.word	0x0067;	????	
 21a:	02 04       	.word	0x0402;	????	
 21c:	01 06       	.word	0x0601;	????	
 21e:	66 06       	.word	0x0666;	????	
 220:	f3 da       	bis.b	@r10+,	#1	;r3 As==01
 222:	9f 00       	.word	0x009f;	????	
 224:	02 04       	.word	0x0402;	????	
 226:	01 06       	.word	0x0601;	????	
 228:	66 06       	.word	0x0666;	????	
 22a:	08 ad       	dadd	r13,	r8	
 22c:	b8 31       	jn	$+882    	;abs 0x59e
 22e:	30 67       	addc	@r7+,	r0	
 230:	08 21       	jnz	$+530    	;abs 0x442
 232:	9f d7 03 66 	bis	26115(r7),898(r15);0x6603(r7), 0x0382(r15)
 236:	82 03 
 238:	23 2e       	jc	$-952    	;abs 0xfe80
 23a:	00 02       	.word	0x0200;	????	
 23c:	04 01       	.word	0x0104;	????	
 23e:	03 5d       	.word	0x5d03;	????	Illegal as 2-op instr
 240:	4a 03       	.word	0x034a;	????	
 242:	26 66       	addc	@r6,	r6	
 244:	02 0a       	.word	0x0a02;	????	
 246:	00 01       	.word	0x0100;	????	
 248:	01 3d       	jmp	$+516    	;abs 0x44c
 24a:	00 00       	.word	0x0000;	????	
 24c:	00 02       	.word	0x0200;	????	
 24e:	00 25       	jz	$+514    	;abs 0x450
 250:	00 00       	.word	0x0000;	????	
 252:	00 01       	.word	0x0100;	????	
 254:	01 fb       	and	r11,	r1	
 256:	0e 0d       	.word	0x0d0e;	????	
 258:	00 01       	.word	0x0100;	????	
 25a:	01 01       	.word	0x0101;	????	
 25c:	01 00       	.word	0x0001;	????	
 25e:	00 00       	.word	0x0000;	????	
 260:	01 00       	.word	0x0001;	????	
 262:	00 01       	.word	0x0100;	????	
 264:	00 63       	adc	r0		
 266:	6f 6e       	addc.b	@r14,	r15	
 268:	69 6f       	addc.b	@r15,	r9	
 26a:	5f 73       	subc.b	#1,	r15	;r3 As==01
 26c:	65 72       	subc.b	#4,	r5	;r2 As==10
 26e:	69 61       	addc.b	@r1,	r9	
 270:	6c 2e       	jc	$-806    	;abs 0xff4a
 272:	63 00       	.word	0x0063;	????	
 274:	00 00       	.word	0x0000;	????	
 276:	00 00       	.word	0x0000;	????	
 278:	00 03       	.word	0x0300;	????	
 27a:	02 52       	rla	r2		
 27c:	c4 03       	.word	0x03c4;	????	
 27e:	17 01       	.word	0x0117;	????	
 280:	13 4b       	.word	0x4b13;	????	Illegal as 2-op instr
 282:	31 13       	reti			;return from interupt
 284:	4b 02       	.word	0x024b;	????	
 286:	02 00       	.word	0x0002;	????	
 288:	01 01       	.word	0x0101;	????	
 28a:	f0 00       	.word	0x00f0;	????	
 28c:	00 00       	.word	0x0000;	????	
 28e:	02 00       	.word	0x0002;	????	
 290:	a4 00       	.word	0x00a4;	????	
 292:	00 00       	.word	0x0000;	????	
 294:	01 01       	.word	0x0101;	????	
 296:	fb 0e       	.word	0x0efb;	????	
 298:	0d 00       	.word	0x000d;	????	
 29a:	01 01       	.word	0x0101;	????	
 29c:	01 01       	.word	0x0101;	????	
 29e:	00 00       	.word	0x0000;	????	
 2a0:	00 01       	.word	0x0100;	????	
 2a2:	00 00       	.word	0x0000;	????	
 2a4:	01 2f       	jc	$-508    	;abs 0xa8
 2a6:	68 6f       	addc.b	@r15,	r8	
 2a8:	6d 65       	addc.b	@r5,	r13	
 2aa:	2f 62       	addc	#4,	r15	;r2 As==10
 2ac:	72 79       	subc.b	@r9+,	r2	
 2ae:	61 6e       	addc.b	@r14,	r1	
 2b0:	2f 2e       	jc	$-928    	;abs 0xff10
 2b2:	6c 6f       	addc.b	@r15,	r12	
 2b4:	63 61       	.word	0x6163;	????	Illegal as 2-op instr
 2b6:	6c 2f       	jc	$-294    	;abs 0x190
 2b8:	65 6e       	addc.b	@r14,	r5	
 2ba:	65 72       	subc.b	#4,	r5	;r2 As==10
 2bc:	67 69       	addc.b	@r9,	r7	
 2be:	61 2f       	jc	$-316    	;abs 0x182
 2c0:	68 61       	addc.b	@r1,	r8	
 2c2:	72 64       	addc.b	@r4+,	r2	
 2c4:	77 61       	addc.b	@r1+,	r7	
 2c6:	72 65       	addc.b	@r5+,	r2	
 2c8:	2f 74       	subc	@r4,	r15	
 2ca:	6f 6f       	addc.b	@r15,	r15	
 2cc:	6c 73       	subc.b	#2,	r12	;r3 As==10
 2ce:	2f 6d       	addc	@r13,	r15	
 2d0:	73 70       	.word	0x7073;	????	Illegal as 2-op instr
 2d2:	34 33       	jn	$-406    	;abs 0x13c
 2d4:	30 2f       	jc	$-414    	;abs 0x136
 2d6:	62 69       	addc.b	@r9,	r2	
 2d8:	6e 2f       	jc	$-290    	;abs 0x1b6
 2da:	2e 2e       	jc	$-930    	;abs 0xff38
 2dc:	2f 6c       	addc	@r12,	r15	
 2de:	69 62       	addc.b	#4,	r9	;r2 As==10
 2e0:	2f 67       	addc	@r7,	r15	
 2e2:	63 63       	.word	0x6363;	????	Illegal as 2-op instr
 2e4:	2f 6d       	addc	@r13,	r15	
 2e6:	73 70       	.word	0x7073;	????	Illegal as 2-op instr
 2e8:	34 33       	jn	$-406    	;abs 0x152
 2ea:	30 2f       	jc	$-414    	;abs 0x14c
 2ec:	34 2e       	jc	$-918    	;abs 0xff56
 2ee:	36 2e       	jc	$-914    	;abs 0xff5c
 2f0:	33 2f       	jc	$-408    	;abs 0x158
 2f2:	2e 2e       	jc	$-930    	;abs 0xff50
 2f4:	2f 2e       	jc	$-928    	;abs 0xff54
 2f6:	2e 2f       	jc	$-418    	;abs 0x154
 2f8:	2e 2e       	jc	$-930    	;abs 0xff56
 2fa:	2f 2e       	jc	$-928    	;abs 0xff5a
 2fc:	2e 2f       	jc	$-418    	;abs 0x15a
 2fe:	6d 73       	subc.b	#2,	r13	;r3 As==10
 300:	70 34       	jge	$+226    	;abs 0x3e2
 302:	33 30       	jn	$+104    	;abs 0x36a
 304:	2f 69       	addc	@r9,	r15	
 306:	6e 63       	addc.b	#2,	r14	;r3 As==10
 308:	6c 75       	subc.b	@r5,	r12	
 30a:	64 65       	addc.b	@r5,	r4	
 30c:	00 00       	.word	0x0000;	????	
 30e:	73 65       	.word	0x6573;	????	Illegal as 2-op instr
 310:	72 69       	addc.b	@r9+,	r2	
 312:	61 6c       	addc.b	@r12,	r1	
 314:	5f 75 73 63 	subc.b	25459(r5),r15	;0x6373(r5)
 318:	69 5f       	add.b	@r15,	r9	
 31a:	6d 73       	subc.b	#2,	r13	;r3 As==10
 31c:	70 34       	jge	$+226    	;abs 0x3fe
 31e:	33 30       	jn	$+104    	;abs 0x386
 320:	2e 63       	addc	#2,	r14	;r3 As==10
 322:	00 00       	.word	0x0000;	????	
 324:	00 00       	.word	0x0000;	????	
 326:	6d 73       	subc.b	#2,	r13	;r3 As==10
 328:	70 34       	jge	$+226    	;abs 0x40a
 32a:	33 30       	jn	$+104    	;abs 0x392
 32c:	67 32       	jn	$-816    	;abs 0xfffc
 32e:	35 35       	jge	$+620    	;abs 0x59a
 330:	33 2e       	jc	$-920    	;abs 0xff98
 332:	68 00       	.word	0x0068;	????	
 334:	01 00       	.word	0x0001;	????	
 336:	00 00       	.word	0x0000;	????	
 338:	00 03       	.word	0x0300;	????	
 33a:	02 5e       	add	r14,	r2	
 33c:	c4 03       	.word	0x03c4;	????	
 33e:	2a 01       	.word	0x012a;	????	
 340:	13 67       	.word	0x6713;	????	Illegal as 2-op instr
 342:	67 68       	addc.b	@r8,	r7	
 344:	03 0a       	.word	0x0a03;	????	
 346:	08 ac       	dadd	r12,	r8	
 348:	02 2e       	jc	$-1018   	;abs 0xff4e
 34a:	14 d7 bd bf 	bis	-16451(r7),r4	;0xbfbd(r7)
 34e:	02 2e       	jc	$-1018   	;abs 0xff54
 350:	14 84 d7 bb 	sub	-17449(r4),r4	;0xbbd7(r4)
 354:	bb da bb d7 	bis	@r10+,	-10309(r11);0xd7bb(r11)
 358:	d7 a4 4b 67 	dadd.b	26443(r4),19203(r7);0x674b(r4), 0x4b03(r7)
 35c:	03 4b 
 35e:	2e 13       	reti			;return from interupt
 360:	d7 03       	.word	0x03d7;	????	
 362:	36 2e       	jc	$-914    	;abs 0xffd0
 364:	13 4b       	.word	0x4b13;	????	Illegal as 2-op instr
 366:	31 00       	.word	0x0031;	????	
 368:	02 04       	.word	0x0402;	????	
 36a:	01 13       	reti			;return from interupt
 36c:	83 4b       	mov	r11,	#1	;r3 As==01
 36e:	31 13       	reti			;return from interupt
 370:	4b 31       	jn	$+664    	;abs 0x608
 372:	00 02       	.word	0x0200;	????	
 374:	04 01       	.word	0x0104;	????	
 376:	13 83       	dec	#0		;r3 As==00
 378:	4b 02       	.word	0x024b;	????	
 37a:	02 00       	.word	0x0002;	????	
 37c:	01 01       	.word	0x0101;	????	
 37e:	78 00       	.word	0x0078;	????	
 380:	00 00       	.word	0x0000;	????	
 382:	02 00       	.word	0x0002;	????	
 384:	4b 00       	.word	0x004b;	????	
 386:	00 00       	.word	0x0000;	????	
 388:	01 01       	.word	0x0101;	????	
 38a:	fb 0e       	.word	0x0efb;	????	
 38c:	0d 00       	.word	0x000d;	????	
 38e:	01 01       	.word	0x0101;	????	
 390:	01 01       	.word	0x0101;	????	
 392:	00 00       	.word	0x0000;	????	
 394:	00 01       	.word	0x0100;	????	
 396:	00 00       	.word	0x0000;	????	
 398:	01 2e       	jc	$-1020   	;abs 0xff9c
 39a:	2e 2f       	jc	$-418    	;abs 0x1f8
 39c:	2e 2e       	jc	$-930    	;abs 0xfffa
 39e:	2f 2e       	jc	$-928    	;abs 0xfffe
 3a0:	2e 2f       	jc	$-418    	;abs 0x1fe
 3a2:	2e 2e       	jc	$-930    	;abs 0x0
 3a4:	2f 67       	addc	@r7,	r15	
 3a6:	63 63       	.word	0x6363;	????	Illegal as 2-op instr
 3a8:	2f 6c       	addc	@r12,	r15	
 3aa:	69 62       	addc.b	#4,	r9	;r2 As==10
 3ac:	67 63       	addc.b	#2,	r7	;r3 As==10
 3ae:	63 2f       	jc	$-312    	;abs 0x276
 3b0:	2e 2e       	jc	$-930    	;abs 0xe
 3b2:	2f 67       	addc	@r7,	r15	
 3b4:	63 63       	.word	0x6363;	????	Illegal as 2-op instr
 3b6:	2f 63       	addc	#2,	r15	;r3 As==10
 3b8:	6f 6e       	addc.b	@r14,	r15	
 3ba:	66 69       	addc.b	@r9,	r6	
 3bc:	67 2f       	jc	$-304    	;abs 0x28c
 3be:	6d 73       	subc.b	#2,	r13	;r3 As==10
 3c0:	70 34       	jge	$+226    	;abs 0x4a2
 3c2:	33 30       	jn	$+104    	;abs 0x42a
 3c4:	00 00       	.word	0x0000;	????	
 3c6:	6c 69       	addc.b	@r9,	r12	
 3c8:	62 67       	addc.b	@r7,	r2	
 3ca:	63 63       	.word	0x6363;	????	Illegal as 2-op instr
 3cc:	2e 53       	incd	r14		
 3ce:	00 01       	.word	0x0100;	????	
 3d0:	00 00       	.word	0x0000;	????	
 3d2:	00 00       	.word	0x0000;	????	
 3d4:	03 02       	.word	0x0203;	????	
 3d6:	c0 c5 03 c6 	bic.b	r5,	-14845(r0);PC rel. 0xc9db
 3da:	04 01       	.word	0x0104;	????	
 3dc:	2f 2f       	jc	$-416    	;abs 0x23c
 3de:	2f 4b       	mov	@r11,	r15	
 3e0:	2f 2f       	jc	$-416    	;abs 0x240
 3e2:	2f 2f       	jc	$-416    	;abs 0x242
 3e4:	2f 2f       	jc	$-416    	;abs 0x244
 3e6:	2f 2f       	jc	$-416    	;abs 0x246
 3e8:	4b 2f       	jc	$-360    	;abs 0x280
 3ea:	2f 2f       	jc	$-416    	;abs 0x24a
 3ec:	2f 2f       	jc	$-416    	;abs 0x24c
 3ee:	2f 2f       	jc	$-416    	;abs 0x24e
 3f0:	2f 2f       	jc	$-416    	;abs 0x250
 3f2:	34 4b       	mov	@r11+,	r4	
 3f4:	2f 02       	.word	0x022f;	????	
 3f6:	02 00       	.word	0x0002;	????	
 3f8:	01 01       	.word	0x0101;	????	
 3fa:	6d 00       	.word	0x006d;	????	
 3fc:	00 00       	.word	0x0000;	????	
 3fe:	02 00       	.word	0x0002;	????	
 400:	4b 00       	.word	0x004b;	????	
 402:	00 00       	.word	0x0000;	????	
 404:	01 01       	.word	0x0101;	????	
 406:	fb 0e       	.word	0x0efb;	????	
 408:	0d 00       	.word	0x000d;	????	
 40a:	01 01       	.word	0x0101;	????	
 40c:	01 01       	.word	0x0101;	????	
 40e:	00 00       	.word	0x0000;	????	
 410:	00 01       	.word	0x0100;	????	
 412:	00 00       	.word	0x0000;	????	
 414:	01 2e       	jc	$-1020   	;abs 0x18
 416:	2e 2f       	jc	$-418    	;abs 0x274
 418:	2e 2e       	jc	$-930    	;abs 0x76
 41a:	2f 2e       	jc	$-928    	;abs 0x7a
 41c:	2e 2f       	jc	$-418    	;abs 0x27a
 41e:	2e 2e       	jc	$-930    	;abs 0x7c
 420:	2f 67       	addc	@r7,	r15	
 422:	63 63       	.word	0x6363;	????	Illegal as 2-op instr
 424:	2f 6c       	addc	@r12,	r15	
 426:	69 62       	addc.b	#4,	r9	;r2 As==10
 428:	67 63       	addc.b	#2,	r7	;r3 As==10
 42a:	63 2f       	jc	$-312    	;abs 0x2f2
 42c:	2e 2e       	jc	$-930    	;abs 0x8a
 42e:	2f 67       	addc	@r7,	r15	
 430:	63 63       	.word	0x6363;	????	Illegal as 2-op instr
 432:	2f 63       	addc	#2,	r15	;r3 As==10
 434:	6f 6e       	addc.b	@r14,	r15	
 436:	66 69       	addc.b	@r9,	r6	
 438:	67 2f       	jc	$-304    	;abs 0x308
 43a:	6d 73       	subc.b	#2,	r13	;r3 As==10
 43c:	70 34       	jge	$+226    	;abs 0x51e
 43e:	33 30       	jn	$+104    	;abs 0x4a6
 440:	00 00       	.word	0x0000;	????	
 442:	6c 69       	addc.b	@r9,	r12	
 444:	62 67       	addc.b	@r7,	r2	
 446:	63 63       	.word	0x6363;	????	Illegal as 2-op instr
 448:	2e 53       	incd	r14		
 44a:	00 01       	.word	0x0100;	????	
 44c:	00 00       	.word	0x0000;	????	
 44e:	00 00       	.word	0x0000;	????	
 450:	03 02       	.word	0x0203;	????	
 452:	fa c5 03 a4 	bic.b	@r5+,	-23549(r10);0xa403(r10)
 456:	04 01       	.word	0x0104;	????	
 458:	4b 2f       	jc	$-360    	;abs 0x2f0
 45a:	2f 2f       	jc	$-416    	;abs 0x2ba
 45c:	2f 2f       	jc	$-416    	;abs 0x2bc
 45e:	2f 2f       	jc	$-416    	;abs 0x2be
 460:	2f 2f       	jc	$-416    	;abs 0x2c0
 462:	2f 34       	jge	$+96     	;abs 0x4c2
 464:	4b 2f       	jc	$-360    	;abs 0x2fc
 466:	02 02       	.word	0x0202;	????	
 468:	00 01       	.word	0x0100;	????	
 46a:	01 dd       	bis	r13,	r1	
 46c:	00 00       	.word	0x0000;	????	
 46e:	00 02       	.word	0x0200;	????	
 470:	00 92       	cmp	r2,	r0	
 472:	00 00       	.word	0x0000;	????	
 474:	00 01       	.word	0x0100;	????	
 476:	01 fb       	and	r11,	r1	
 478:	0e 0d       	.word	0x0d0e;	????	
 47a:	00 01       	.word	0x0100;	????	
 47c:	01 01       	.word	0x0101;	????	
 47e:	01 00       	.word	0x0001;	????	
 480:	00 00       	.word	0x0000;	????	
 482:	01 00       	.word	0x0001;	????	
 484:	00 01       	.word	0x0100;	????	
 486:	2e 2f       	jc	$-418    	;abs 0x2e4
 488:	73 74       	.word	0x7473;	????	Illegal as 2-op instr
 48a:	64 6c       	addc.b	@r12,	r4	
 48c:	69 62       	addc.b	#4,	r9	;r2 As==10
 48e:	00 2f       	jc	$-510    	;abs 0x290
 490:	68 6f       	addc.b	@r15,	r8	
 492:	6d 65       	addc.b	@r5,	r13	
 494:	2f 72       	subc	#4,	r15	;r2 As==10
 496:	6f 62       	addc.b	#4,	r15	;r2 As==10
 498:	65 72       	subc.b	#4,	r5	;r2 As==10
 49a:	74 69       	addc.b	@r9+,	r4	
 49c:	6e 61       	addc.b	@r1,	r14	
 49e:	6e 74       	subc.b	@r4,	r14	
 4a0:	2f 6f       	addc	@r15,	r15	
 4a2:	70 74       	subc.b	@r4+,	r0	
 4a4:	2f 6d       	addc	@r13,	r15	
 4a6:	73 70       	.word	0x7073;	????	Illegal as 2-op instr
 4a8:	67 63       	addc.b	#2,	r7	;r3 As==10
 4aa:	63 5f       	.word	0x5f63;	????	Illegal as 2-op instr
 4ac:	65 6e       	addc.b	@r14,	r5	
 4ae:	65 72       	subc.b	#4,	r5	;r2 As==10
 4b0:	67 69       	addc.b	@r9,	r7	
 4b2:	61 2f       	jc	$-316    	;abs 0x376
 4b4:	6c 69       	addc.b	@r9,	r12	
 4b6:	62 2f       	jc	$-314    	;abs 0x37c
 4b8:	67 63       	addc.b	#2,	r7	;r3 As==10
 4ba:	63 2f       	jc	$-312    	;abs 0x382
 4bc:	6d 73       	subc.b	#2,	r13	;r3 As==10
 4be:	70 34       	jge	$+226    	;abs 0x5a0
 4c0:	33 30       	jn	$+104    	;abs 0x528
 4c2:	2f 34       	jge	$+96     	;abs 0x522
 4c4:	2e 36       	jge	$-930    	;abs 0x122
 4c6:	2e 33       	jn	$-418    	;abs 0x324
 4c8:	2f 69       	addc	@r9,	r15	
 4ca:	6e 63       	addc.b	#2,	r14	;r3 As==10
 4cc:	6c 75       	subc.b	@r5,	r12	
 4ce:	64 65       	addc.b	@r5,	r4	
 4d0:	00 2e       	jc	$-1022   	;abs 0xd2
 4d2:	2f 2e       	jc	$-928    	;abs 0x132
 4d4:	2e 2f       	jc	$-418    	;abs 0x332
 4d6:	69 6e       	addc.b	@r14,	r9	
 4d8:	63 6c       	.word	0x6c63;	????	Illegal as 2-op instr
 4da:	75 64       	addc.b	@r4+,	r5	
 4dc:	65 2f       	jc	$-308    	;abs 0x3a8
 4de:	73 79       	.word	0x7973;	????	Illegal as 2-op instr
 4e0:	73 00       	.word	0x0073;	????	
 4e2:	00 6d       	addc	r13,	r0	
 4e4:	61 6c       	addc.b	@r12,	r1	
 4e6:	6c 6f       	addc.b	@r15,	r12	
 4e8:	63 2e       	jc	$-824    	;abs 0x1b0
 4ea:	63 00       	.word	0x0063;	????	
 4ec:	01 00       	.word	0x0001;	????	
 4ee:	00 73       	sbc	r0		
 4f0:	74 64       	addc.b	@r4+,	r4	
 4f2:	64 65       	addc.b	@r5,	r4	
 4f4:	66 2e       	jc	$-818    	;abs 0x1c2
 4f6:	68 00       	.word	0x0068;	????	
 4f8:	02 00       	.word	0x0002;	????	
 4fa:	00 63       	adc	r0		
 4fc:	72 74       	subc.b	@r4+,	r2	
 4fe:	6c 64       	addc.b	@r4,	r12	
 500:	2e 68       	addc	@r8,	r14	
 502:	00 03       	.word	0x0300;	????	
 504:	00 00       	.word	0x0000;	????	
 506:	00 00       	.word	0x0000;	????	
 508:	03 02       	.word	0x0203;	????	
 50a:	1c c6 03 1b 	bic	6915(r6),r12	;0x1b03(r6)
 50e:	01 f6       	and	r6,	r1	
 510:	85 68 4b 68 	addc	r8,	26699(r5);0x684b(r5)
 514:	2f 4b       	mov	@r11,	r15	
 516:	03 23       	jnz	$-504    	;abs 0x31e
 518:	9e 03       	.word	0x039e;	????	
 51a:	60 66       	addc.b	@r6,	r0	
 51c:	03 6e       	.word	0x6e03;	????	Illegal as 2-op instr
 51e:	82 03       	.word	0x0382;	????	
 520:	18 9e 4c 4c 	cmp	19532(r14),r8	;0x4c4c(r14)
 524:	03 77       	.word	0x7703;	????	Illegal as 2-op instr
 526:	02 2c       	jc	$+6      	;abs 0x52c
 528:	01 03       	.word	0x0301;	????	
 52a:	0b 4a       	mov	r10,	r11	
 52c:	bc 68 00 02 	addc	@r8+,	512(r12);0x0200(r12)
 530:	04 01       	.word	0x0104;	????	
 532:	06 66       	rlc	r6		
 534:	9e 06       	.word	0x069e;	????	
 536:	48 6b       	addc.b	r11,	r8	
 538:	4c bc       	bit.b	r12,	r12	
 53a:	4b 83       	sub.b	#0,	r11	;r3 As==00
 53c:	4b d7       	bis.b	r7,	r11	
 53e:	2f 67       	addc	@r7,	r15	
 540:	6b 4b       	mov.b	@r11,	r11	
 542:	2f 08       	.word	0x082f;	????	
 544:	23 14       	.word	0x1423;	????	
 546:	67 02       	.word	0x0267;	????	
 548:	02 00       	.word	0x0002;	????	
 54a:	01 01       	.word	0x0101;	????	
 54c:	52 00       	.word	0x0052;	????	
 54e:	00 00       	.word	0x0000;	????	
 550:	02 00       	.word	0x0002;	????	
 552:	3c 00       	.word	0x003c;	????	
 554:	00 00       	.word	0x0000;	????	
 556:	01 01       	.word	0x0101;	????	
 558:	fb 0e       	.word	0x0efb;	????	
 55a:	0d 00       	.word	0x000d;	????	
 55c:	01 01       	.word	0x0101;	????	
 55e:	01 01       	.word	0x0101;	????	
 560:	00 00       	.word	0x0000;	????	
 562:	00 01       	.word	0x0100;	????	
 564:	00 00       	.word	0x0000;	????	
 566:	01 2e       	jc	$-1020   	;abs 0x16a
 568:	2e 2f       	jc	$-418    	;abs 0x3c6
 56a:	2e 2e       	jc	$-930    	;abs 0x1c8
 56c:	2f 2e       	jc	$-928    	;abs 0x1cc
 56e:	2e 2f       	jc	$-418    	;abs 0x3cc
 570:	67 63       	addc.b	#2,	r7	;r3 As==10
 572:	63 2f       	jc	$-312    	;abs 0x43a
 574:	67 63       	addc.b	#2,	r7	;r3 As==10
 576:	63 2f       	jc	$-312    	;abs 0x43e
 578:	63 6f       	.word	0x6f63;	????	Illegal as 2-op instr
 57a:	6e 66       	addc.b	@r6,	r14	
 57c:	69 67       	addc.b	@r7,	r9	
 57e:	2f 6d       	addc	@r13,	r15	
 580:	73 70       	.word	0x7073;	????	Illegal as 2-op instr
 582:	34 33       	jn	$-406    	;abs 0x3ec
 584:	30 00       	.word	0x0030;	????	
 586:	00 63       	adc	r0		
 588:	72 74       	subc.b	@r4+,	r2	
 58a:	30 2e       	jc	$-926    	;abs 0x1ec
 58c:	53 00       	.word	0x0053;	????	
 58e:	01 00       	.word	0x0001;	????	
 590:	00 00       	.word	0x0000;	????	
 592:	00 03       	.word	0x0300;	????	
 594:	02 00       	.word	0x0002;	????	
 596:	c0 03       	.word	0x03c0;	????	
 598:	e8 00       	.word	0x00e8;	????	
 59a:	01 4b       	mov	r11,	r1	
 59c:	4b 02       	.word	0x024b;	????	
 59e:	04 00       	.word	0x0004;	????	
 5a0:	01 01       	.word	0x0101;	????	
 5a2:	50 00       	.word	0x0050;	????	
 5a4:	00 00       	.word	0x0000;	????	
 5a6:	02 00       	.word	0x0002;	????	
 5a8:	3c 00       	.word	0x003c;	????	
 5aa:	00 00       	.word	0x0000;	????	
 5ac:	01 01       	.word	0x0101;	????	
 5ae:	fb 0e       	.word	0x0efb;	????	
 5b0:	0d 00       	.word	0x000d;	????	
 5b2:	01 01       	.word	0x0101;	????	
 5b4:	01 01       	.word	0x0101;	????	
 5b6:	00 00       	.word	0x0000;	????	
 5b8:	00 01       	.word	0x0100;	????	
 5ba:	00 00       	.word	0x0000;	????	
 5bc:	01 2e       	jc	$-1020   	;abs 0x1c0
 5be:	2e 2f       	jc	$-418    	;abs 0x41c
 5c0:	2e 2e       	jc	$-930    	;abs 0x21e
 5c2:	2f 2e       	jc	$-928    	;abs 0x222
 5c4:	2e 2f       	jc	$-418    	;abs 0x422
 5c6:	67 63       	addc.b	#2,	r7	;r3 As==10
 5c8:	63 2f       	jc	$-312    	;abs 0x490
 5ca:	67 63       	addc.b	#2,	r7	;r3 As==10
 5cc:	63 2f       	jc	$-312    	;abs 0x494
 5ce:	63 6f       	.word	0x6f63;	????	Illegal as 2-op instr
 5d0:	6e 66       	addc.b	@r6,	r14	
 5d2:	69 67       	addc.b	@r7,	r9	
 5d4:	2f 6d       	addc	@r13,	r15	
 5d6:	73 70       	.word	0x7073;	????	Illegal as 2-op instr
 5d8:	34 33       	jn	$-406    	;abs 0x442
 5da:	30 00       	.word	0x0030;	????	
 5dc:	00 63       	adc	r0		
 5de:	72 74       	subc.b	@r4+,	r2	
 5e0:	30 2e       	jc	$-926    	;abs 0x242
 5e2:	53 00       	.word	0x0053;	????	
 5e4:	01 00       	.word	0x0001;	????	
 5e6:	00 00       	.word	0x0000;	????	
 5e8:	00 03       	.word	0x0300;	????	
 5ea:	02 0c       	.word	0x0c02;	????	
 5ec:	c0 03       	.word	0x03c0;	????	
 5ee:	99 01       	.word	0x0199;	????	
 5f0:	01 02       	.word	0x0201;	????	
 5f2:	04 00       	.word	0x0004;	????	
 5f4:	01 01       	.word	0x0101;	????	
 5f6:	56 00       	.word	0x0056;	????	
 5f8:	00 00       	.word	0x0000;	????	
 5fa:	02 00       	.word	0x0002;	????	
 5fc:	3c 00       	.word	0x003c;	????	
 5fe:	00 00       	.word	0x0000;	????	
 600:	01 01       	.word	0x0101;	????	
 602:	fb 0e       	.word	0x0efb;	????	
 604:	0d 00       	.word	0x000d;	????	
 606:	01 01       	.word	0x0101;	????	
 608:	01 01       	.word	0x0101;	????	
 60a:	00 00       	.word	0x0000;	????	
 60c:	00 01       	.word	0x0100;	????	
 60e:	00 00       	.word	0x0000;	????	
 610:	01 2e       	jc	$-1020   	;abs 0x214
 612:	2e 2f       	jc	$-418    	;abs 0x470
 614:	2e 2e       	jc	$-930    	;abs 0x272
 616:	2f 2e       	jc	$-928    	;abs 0x276
 618:	2e 2f       	jc	$-418    	;abs 0x476
 61a:	67 63       	addc.b	#2,	r7	;r3 As==10
 61c:	63 2f       	jc	$-312    	;abs 0x4e4
 61e:	67 63       	addc.b	#2,	r7	;r3 As==10
 620:	63 2f       	jc	$-312    	;abs 0x4e8
 622:	63 6f       	.word	0x6f63;	????	Illegal as 2-op instr
 624:	6e 66       	addc.b	@r6,	r14	
 626:	69 67       	addc.b	@r7,	r9	
 628:	2f 6d       	addc	@r13,	r15	
 62a:	73 70       	.word	0x7073;	????	Illegal as 2-op instr
 62c:	34 33       	jn	$-406    	;abs 0x496
 62e:	30 00       	.word	0x0030;	????	
 630:	00 63       	adc	r0		
 632:	72 74       	subc.b	@r4+,	r2	
 634:	30 2e       	jc	$-926    	;abs 0x296
 636:	53 00       	.word	0x0053;	????	
 638:	01 00       	.word	0x0001;	????	
 63a:	00 00       	.word	0x0000;	????	
 63c:	00 03       	.word	0x0300;	????	
 63e:	02 10       	rrc	r2		
 640:	c0 03       	.word	0x03c0;	????	
 642:	bc 01       	.word	0x01bc;	????	
 644:	01 4b       	mov	r11,	r1	
 646:	2f 30       	jn	$+96     	;abs 0x6a6
 648:	67 2f       	jc	$-304    	;abs 0x518
 64a:	67 02       	.word	0x0267;	????	
 64c:	02 00       	.word	0x0002;	????	
 64e:	01 01       	.word	0x0101;	????	
 650:	56 00       	.word	0x0056;	????	
 652:	00 00       	.word	0x0000;	????	
 654:	02 00       	.word	0x0002;	????	
 656:	3c 00       	.word	0x003c;	????	
 658:	00 00       	.word	0x0000;	????	
 65a:	01 01       	.word	0x0101;	????	
 65c:	fb 0e       	.word	0x0efb;	????	
 65e:	0d 00       	.word	0x000d;	????	
 660:	01 01       	.word	0x0101;	????	
 662:	01 01       	.word	0x0101;	????	
 664:	00 00       	.word	0x0000;	????	
 666:	00 01       	.word	0x0100;	????	
 668:	00 00       	.word	0x0000;	????	
 66a:	01 2e       	jc	$-1020   	;abs 0x26e
 66c:	2e 2f       	jc	$-418    	;abs 0x4ca
 66e:	2e 2e       	jc	$-930    	;abs 0x2cc
 670:	2f 2e       	jc	$-928    	;abs 0x2d0
 672:	2e 2f       	jc	$-418    	;abs 0x4d0
 674:	67 63       	addc.b	#2,	r7	;r3 As==10
 676:	63 2f       	jc	$-312    	;abs 0x53e
 678:	67 63       	addc.b	#2,	r7	;r3 As==10
 67a:	63 2f       	jc	$-312    	;abs 0x542
 67c:	63 6f       	.word	0x6f63;	????	Illegal as 2-op instr
 67e:	6e 66       	addc.b	@r6,	r14	
 680:	69 67       	addc.b	@r7,	r9	
 682:	2f 6d       	addc	@r13,	r15	
 684:	73 70       	.word	0x7073;	????	Illegal as 2-op instr
 686:	34 33       	jn	$-406    	;abs 0x4f0
 688:	30 00       	.word	0x0030;	????	
 68a:	00 63       	adc	r0		
 68c:	72 74       	subc.b	@r4+,	r2	
 68e:	30 2e       	jc	$-926    	;abs 0x2f0
 690:	53 00       	.word	0x0053;	????	
 692:	01 00       	.word	0x0001;	????	
 694:	00 00       	.word	0x0000;	????	
 696:	00 03       	.word	0x0300;	????	
 698:	02 28       	jnc	$+6      	;abs 0x69e
 69a:	c0 03       	.word	0x03c0;	????	
 69c:	d6 01       	.word	0x01d6;	????	
 69e:	01 4b       	mov	r11,	r1	
 6a0:	2f 30       	jn	$+96     	;abs 0x700
 6a2:	67 2f       	jc	$-304    	;abs 0x572
 6a4:	4b 02       	.word	0x024b;	????	
 6a6:	02 00       	.word	0x0002;	????	
 6a8:	01 01       	.word	0x0101;	????	
 6aa:	51 00       	.word	0x0051;	????	
 6ac:	00 00       	.word	0x0000;	????	
 6ae:	02 00       	.word	0x0002;	????	
 6b0:	3c 00       	.word	0x003c;	????	
 6b2:	00 00       	.word	0x0000;	????	
 6b4:	01 01       	.word	0x0101;	????	
 6b6:	fb 0e       	.word	0x0efb;	????	
 6b8:	0d 00       	.word	0x000d;	????	
 6ba:	01 01       	.word	0x0101;	????	
 6bc:	01 01       	.word	0x0101;	????	
 6be:	00 00       	.word	0x0000;	????	
 6c0:	00 01       	.word	0x0100;	????	
 6c2:	00 00       	.word	0x0000;	????	
 6c4:	01 2e       	jc	$-1020   	;abs 0x2c8
 6c6:	2e 2f       	jc	$-418    	;abs 0x524
 6c8:	2e 2e       	jc	$-930    	;abs 0x326
 6ca:	2f 2e       	jc	$-928    	;abs 0x32a
 6cc:	2e 2f       	jc	$-418    	;abs 0x52a
 6ce:	67 63       	addc.b	#2,	r7	;r3 As==10
 6d0:	63 2f       	jc	$-312    	;abs 0x598
 6d2:	67 63       	addc.b	#2,	r7	;r3 As==10
 6d4:	63 2f       	jc	$-312    	;abs 0x59c
 6d6:	63 6f       	.word	0x6f63;	????	Illegal as 2-op instr
 6d8:	6e 66       	addc.b	@r6,	r14	
 6da:	69 67       	addc.b	@r7,	r9	
 6dc:	2f 6d       	addc	@r13,	r15	
 6de:	73 70       	.word	0x7073;	????	Illegal as 2-op instr
 6e0:	34 33       	jn	$-406    	;abs 0x54a
 6e2:	30 00       	.word	0x0030;	????	
 6e4:	00 63       	adc	r0		
 6e6:	72 74       	subc.b	@r4+,	r2	
 6e8:	30 2e       	jc	$-926    	;abs 0x34a
 6ea:	53 00       	.word	0x0053;	????	
 6ec:	01 00       	.word	0x0001;	????	
 6ee:	00 00       	.word	0x0000;	????	
 6f0:	00 03       	.word	0x0300;	????	
 6f2:	02 f0       	and	r0,	r2	
 6f4:	c0 03       	.word	0x03c0;	????	
 6f6:	fe 01       	.word	0x01fe;	????	
 6f8:	01 4b       	mov	r11,	r1	
 6fa:	02 02       	.word	0x0202;	????	
 6fc:	00 01       	.word	0x0100;	????	
 6fe:	01 50       	add	r0,	r1	
 700:	00 00       	.word	0x0000;	????	
 702:	00 02       	.word	0x0200;	????	
 704:	00 3c       	jmp	$+2      	;abs 0x706
 706:	00 00       	.word	0x0000;	????	
 708:	00 01       	.word	0x0100;	????	
 70a:	01 fb       	and	r11,	r1	
 70c:	0e 0d       	.word	0x0d0e;	????	
 70e:	00 01       	.word	0x0100;	????	
 710:	01 01       	.word	0x0101;	????	
 712:	01 00       	.word	0x0001;	????	
 714:	00 00       	.word	0x0000;	????	
 716:	01 00       	.word	0x0001;	????	
 718:	00 01       	.word	0x0100;	????	
 71a:	2e 2e       	jc	$-930    	;abs 0x378
 71c:	2f 2e       	jc	$-928    	;abs 0x37c
 71e:	2e 2f       	jc	$-418    	;abs 0x57c
 720:	2e 2e       	jc	$-930    	;abs 0x37e
 722:	2f 67       	addc	@r7,	r15	
 724:	63 63       	.word	0x6363;	????	Illegal as 2-op instr
 726:	2f 67       	addc	@r7,	r15	
 728:	63 63       	.word	0x6363;	????	Illegal as 2-op instr
 72a:	2f 63       	addc	#2,	r15	;r3 As==10
 72c:	6f 6e       	addc.b	@r14,	r15	
 72e:	66 69       	addc.b	@r9,	r6	
 730:	67 2f       	jc	$-304    	;abs 0x600
 732:	6d 73       	subc.b	#2,	r13	;r3 As==10
 734:	70 34       	jge	$+226    	;abs 0x816
 736:	33 30       	jn	$+104    	;abs 0x79e
 738:	00 00       	.word	0x0000;	????	
 73a:	63 72       	.word	0x7263;	????	Illegal as 2-op instr
 73c:	74 30       	jn	$+234    	;abs 0x826
 73e:	2e 53       	incd	r14		
 740:	00 01       	.word	0x0100;	????	
 742:	00 00       	.word	0x0000;	????	
 744:	00 00       	.word	0x0000;	????	
 746:	03 02       	.word	0x0203;	????	
 748:	2c c7       	bic	@r7,	r12	
 74a:	03 cd       	.word	0xcd03;	????	Illegal as 2-op instr
 74c:	02 01       	.word	0x0102;	????	
 74e:	02 02       	.word	0x0202;	????	
 750:	00 01       	.word	0x0100;	????	
 752:	01 01       	Address 0x0000000000000752 is out of bounds.
Address 0x0000000000000754 is out of bounds.
and.b	@r15+,	-1(r15)	;0xffff(r15)

Disassembly of section .debug_frame:

00000000 <.debug_frame>:
   0:	0e 00       	.word	0x000e;	????	
   2:	00 00       	.word	0x0000;	????	
   4:	ff ff ff ff 	and.b	@r15+,	-1(r15)	;0xffff(r15)
   8:	01 00       	.word	0x0001;	????	
   a:	01 7e       	subc	r14,	r1	
   c:	00 0c       	.word	0x0c00;	????	
   e:	01 02       	.word	0x0201;	????	
  10:	80 01       	.word	0x0180;	????	
  12:	22 00       	.word	0x0022;	????	
  14:	00 00       	.word	0x0000;	????	
  16:	00 00       	.word	0x0000;	????	
  18:	00 00       	.word	0x0000;	????	
  1a:	3e c0 b2 00 	bic	#178,	r14	;#0x00b2
  1e:	44 0e       	.word	0x0e44;	????	
  20:	04 40       	mov	r0,	r4	
  22:	2e 02       	.word	0x022e;	????	
  24:	46 0e       	.word	0x0e46;	????	
  26:	02 58       	add	r8,	r2	
  28:	2e 00       	.word	0x002e;	????	
  2a:	02 64       	addc	r4,	r2	
  2c:	0e 04       	.word	0x040e;	????	
  2e:	40 2e       	jc	$-894    	;abs 0xfcb0
  30:	02 46       	mov	r6,	r2	
  32:	0e 02       	.word	0x020e;	????	
  34:	4e 2e       	jc	$-866    	;abs 0xfcd2
  36:	00 00       	.word	0x0000;	????	
  38:	0c 00       	.word	0x000c;	????	
  3a:	00 00       	.word	0x0000;	????	
  3c:	00 00       	.word	0x0000;	????	
  3e:	00 00       	.word	0x0000;	????	
  40:	fa c0 9a 00 	bic.b	#154,	3650(r10);#0x009a, 0x0e42(r10)
  44:	42 0e 
  46:	06 00       	.word	0x0006;	????	
  48:	08 00       	.word	0x0008;	????	
  4a:	00 00       	.word	0x0000;	????	
  4c:	00 00       	.word	0x0000;	????	
  4e:	00 00       	.word	0x0000;	????	
  50:	94 c1 02 00 	bic	2(r1),	32(r4)	;0x0002(r1), 0x0020(r4)
  54:	20 00 
  56:	00 00       	.word	0x0000;	????	
  58:	00 00       	.word	0x0000;	????	
  5a:	00 00       	.word	0x0000;	????	
  5c:	96 c1 52 00 	bic	82(r1),	3650(r6);0x0052(r1), 0x0e42(r6)
  60:	42 0e 
  62:	04 8f       	sub	r15,	r4	
  64:	02 42       	mov	r2,	r2	
  66:	0e 06       	.word	0x060e;	????	
  68:	8e 03       	.word	0x038e;	????	
  6a:	42 0e       	.word	0x0e42;	????	
  6c:	08 8d       	sub	r13,	r8	
  6e:	04 42       	mov	r2,	r4	
  70:	0e 0a       	.word	0x0a0e;	????	
  72:	8c 05       	.word	0x058c;	????	
  74:	42 0e       	.word	0x0e42;	????	
  76:	0c 00       	.word	0x000c;	????	
  78:	0e 00       	.word	0x000e;	????	
  7a:	00 00       	.word	0x0000;	????	
  7c:	ff ff ff ff 	and.b	@r15+,	-1(r15)	;0xffff(r15)
  80:	01 00       	.word	0x0001;	????	
  82:	01 7e       	subc	r14,	r1	
  84:	00 0c       	.word	0x0c00;	????	
  86:	01 02       	.word	0x0201;	????	
  88:	80 01       	.word	0x0180;	????	
  8a:	22 00       	.word	0x0022;	????	
  8c:	00 00       	.word	0x0000;	????	
  8e:	78 00       	.word	0x0078;	????	
  90:	00 00       	.word	0x0000;	????	
  92:	e8 c1 6a 00 	bic.b	@r1,	106(r8)	;0x006a(r8)
  96:	42 0e       	.word	0x0e42;	????	
  98:	04 8b       	sub	r11,	r4	
  9a:	02 42       	mov	r2,	r2	
  9c:	0e 06       	.word	0x060e;	????	
  9e:	8a 03       	.word	0x038a;	????	
  a0:	42 0e       	.word	0x0e42;	????	
  a2:	08 89       	sub	r9,	r8	
  a4:	04 42       	mov	r2,	r4	
  a6:	0e 0a       	.word	0x0a0e;	????	
  a8:	88 05       	.word	0x0588;	????	
  aa:	42 0e       	.word	0x0e42;	????	
  ac:	0c 87       	sub	r7,	r12	
  ae:	06 00       	.word	0x0006;	????	
  b0:	08 00       	.word	0x0008;	????	
  b2:	00 00       	.word	0x0000;	????	
  b4:	78 00       	.word	0x0078;	????	
  b6:	00 00       	.word	0x0000;	????	
  b8:	52 c2 0e 00 	bic.b	&0x000e,r2	
  bc:	0e 00       	.word	0x000e;	????	
  be:	00 00       	.word	0x0000;	????	
  c0:	78 00       	.word	0x0078;	????	
  c2:	00 00       	.word	0x0000;	????	
  c4:	60 c2       	bic.b	#4,	r0	;r2 As==10
  c6:	14 00       	.word	0x0014;	????	
  c8:	42 0e       	.word	0x0e42;	????	
  ca:	04 8b       	sub	r11,	r4	
  cc:	02 00       	.word	0x0002;	????	
  ce:	1a 00       	.word	0x001a;	????	
  d0:	00 00       	.word	0x0000;	????	
  d2:	78 00       	.word	0x0078;	????	
  d4:	00 00       	.word	0x0000;	????	
  d6:	74 c2       	bic.b	#8,	r4	;r2 As==11
  d8:	7a 00       	.word	0x007a;	????	
  da:	42 0e       	.word	0x0e42;	????	
  dc:	04 8b       	sub	r11,	r4	
  de:	02 42       	mov	r2,	r2	
  e0:	0e 06       	.word	0x060e;	????	
  e2:	8a 03       	.word	0x038a;	????	
  e4:	42 0e       	.word	0x0e42;	????	
  e6:	08 89       	sub	r9,	r8	
  e8:	04 44       	mov	r4,	r4	
  ea:	0e 28       	jnc	$+30     	;abs 0x108
  ec:	12 00       	.word	0x0012;	????	
  ee:	00 00       	.word	0x0000;	????	
  f0:	78 00       	.word	0x0078;	????	
  f2:	00 00       	.word	0x0000;	????	
  f4:	ee c2 3a 00 	bic.b	#4,	58(r14)	;r2 As==10, 0x003a(r14)
  f8:	42 0e       	.word	0x0e42;	????	
  fa:	04 8b       	sub	r11,	r4	
  fc:	02 42       	mov	r2,	r2	
  fe:	0e 06       	.word	0x060e;	????	
 100:	8a 03       	.word	0x038a;	????	
 102:	1c 00       	.word	0x001c;	????	
 104:	00 00       	.word	0x0000;	????	
 106:	78 00       	.word	0x0078;	????	
 108:	00 00       	.word	0x0000;	????	
 10a:	28 c3       	bic	#2,	r8	;r3 As==10
 10c:	2a 01       	.word	0x012a;	????	
 10e:	42 0e       	.word	0x0e42;	????	
 110:	04 8b       	sub	r11,	r4	
 112:	02 42       	mov	r2,	r2	
 114:	0e 06       	.word	0x060e;	????	
 116:	8a 03       	.word	0x038a;	????	
 118:	42 0e       	.word	0x0e42;	????	
 11a:	08 89       	sub	r9,	r8	
 11c:	04 42       	mov	r2,	r4	
 11e:	0e 0a       	.word	0x0a0e;	????	
 120:	88 05       	.word	0x0588;	????	
 122:	0e 00       	.word	0x000e;	????	
 124:	00 00       	.word	0x0000;	????	
 126:	ff ff ff ff 	and.b	@r15+,	-1(r15)	;0xffff(r15)
 12a:	01 00       	.word	0x0001;	????	
 12c:	01 7e       	subc	r14,	r1	
 12e:	00 0c       	.word	0x0c00;	????	
 130:	01 02       	.word	0x0201;	????	
 132:	80 01       	.word	0x0180;	????	
 134:	08 00       	.word	0x0008;	????	
 136:	00 00       	.word	0x0000;	????	
 138:	22 01       	.word	0x0122;	????	
 13a:	00 00       	.word	0x0000;	????	
 13c:	52 c4 06 00 	bic.b	6(r4),	r2	;0x0006(r4)
 140:	08 00       	.word	0x0008;	????	
 142:	00 00       	.word	0x0000;	????	
 144:	22 01       	.word	0x0122;	????	
 146:	00 00       	.word	0x0000;	????	
 148:	58 c4 06 00 	bic.b	6(r4),	r8	;0x0006(r4)
 14c:	0e 00       	.word	0x000e;	????	
 14e:	00 00       	.word	0x0000;	????	
 150:	ff ff ff ff 	and.b	@r15+,	-1(r15)	;0xffff(r15)
 154:	01 00       	.word	0x0001;	????	
 156:	01 7e       	subc	r14,	r1	
 158:	00 0c       	.word	0x0c00;	????	
 15a:	01 02       	.word	0x0201;	????	
 15c:	80 01       	.word	0x0180;	????	
 15e:	08 00       	.word	0x0008;	????	
 160:	00 00       	.word	0x0000;	????	
 162:	4c 01       	.word	0x014c;	????	
 164:	00 00       	.word	0x0000;	????	
 166:	5e c4 2a 01 	bic.b	298(r4),r14	;0x012a(r4)
 16a:	08 00       	.word	0x0008;	????	
 16c:	00 00       	.word	0x0000;	????	
 16e:	4c 01       	.word	0x014c;	????	
 170:	00 00       	.word	0x0000;	????	
 172:	88 c5 10 00 	bic	r5,	16(r8)	;0x0010(r8)
 176:	08 00       	.word	0x0008;	????	
 178:	00 00       	.word	0x0000;	????	
 17a:	4c 01       	.word	0x014c;	????	
 17c:	00 00       	.word	0x0000;	????	
 17e:	98 c5 06 00 	bic	6(r5),	8(r8)	;0x0006(r5), 0x0008(r8)
 182:	08 00 
 184:	00 00       	.word	0x0000;	????	
 186:	4c 01       	.word	0x014c;	????	
 188:	00 00       	.word	0x0000;	????	
 18a:	9e c5 0e 00 	bic	14(r5),	8(r14)	;0x000e(r5), 0x0008(r14)
 18e:	08 00 
 190:	00 00       	.word	0x0000;	????	
 192:	4c 01       	.word	0x014c;	????	
 194:	00 00       	.word	0x0000;	????	
 196:	ac c5 06 00 	bic	@r5,	6(r12)	;0x0006(r12)
 19a:	08 00       	.word	0x0008;	????	
 19c:	00 00       	.word	0x0000;	????	
 19e:	4c 01       	.word	0x014c;	????	
 1a0:	00 00       	.word	0x0000;	????	
 1a2:	b2 c5 0e 00 	bic	@r5+,	&0x000e	
 1a6:	0e 00       	.word	0x000e;	????	
 1a8:	00 00       	.word	0x0000;	????	
 1aa:	ff ff ff ff 	and.b	@r15+,	-1(r15)	;0xffff(r15)
 1ae:	01 00       	.word	0x0001;	????	
 1b0:	01 7e       	subc	r14,	r1	
 1b2:	00 0c       	.word	0x0c00;	????	
 1b4:	01 02       	.word	0x0201;	????	
 1b6:	80 01       	.word	0x0180;	????	
 1b8:	30 00       	.word	0x0030;	????	
 1ba:	00 00       	.word	0x0000;	????	
 1bc:	a6 01       	.word	0x01a6;	????	
 1be:	00 00       	.word	0x0000;	????	
 1c0:	1c c6 08 01 	bic	264(r6),r12	;0x0108(r6)
 1c4:	42 0e       	.word	0x0e42;	????	
 1c6:	04 8b       	sub	r11,	r4	
 1c8:	02 42       	mov	r2,	r2	
 1ca:	0e 06       	.word	0x060e;	????	
 1cc:	8a 03       	.word	0x038a;	????	
 1ce:	42 0e       	.word	0x0e42;	????	
 1d0:	08 89       	sub	r9,	r8	
 1d2:	04 42       	mov	r2,	r4	
 1d4:	0e 0a       	.word	0x0a0e;	????	
 1d6:	88 05       	.word	0x0588;	????	
 1d8:	42 0e       	.word	0x0e42;	????	
 1da:	0c 87       	sub	r7,	r12	
 1dc:	06 42       	mov	r2,	r6	
 1de:	0e 0e       	.word	0x0e0e;	????	
 1e0:	86 07       	.word	0x0786;	????	
 1e2:	42 0e       	.word	0x0e42;	????	
 1e4:	10 85 08 42 	sub	16904(r5),r0	;0x4208(r5)
 1e8:	0e 12       	push	r14		
 1ea:	84 09       	.word	0x0984;	????	
 1ec:	08 00       	.word	0x0008;	????	
 1ee:	00 00       	.word	0x0000;	????	
 1f0:	a6 01       	.word	0x01a6;	????	
 1f2:	00 00       	.word	0x0000;	????	
 1f4:	24 c7       	bic	@r7,	r4	
 1f6:	08 00       	.word	0x0008;	????	

Disassembly of section .debug_str:

00000000 <.debug_str>:
   0:	5f 5f 54 41 	add.b	16724(r15),r15	;0x4154(r15)
   4:	30 43       	br	#-1		;r3 As==11
   6:	54 4c 00 5f 	mov.b	24320(r12),r4	;0x5f00(r12)
   a:	5f 50 31 4f 	add.b	20273(r0),r15	;PC rel. 0x4f3d
   e:	55 54 00 5f 	add.b	24320(r4),r5	;0x5f00(r4)
  12:	5f 50 31 49 	add.b	18737(r0),r15	;PC rel. 0x4945
  16:	46 47       	mov.b	r7,	r6	
  18:	00 5f       	add	r15,	r0	
  1a:	5f 50 31 44 	add.b	17457(r0),r15	;PC rel. 0x444d
  1e:	49 52       	add.b	r2,	r9	
  20:	00 6d       	addc	r13,	r0	
  22:	61 69       	addc.b	@r9,	r1	
  24:	6e 00       	.word	0x006e;	????	
  26:	6e 65       	addc.b	@r5,	r14	
  28:	77 4e       	mov.b	@r14+,	r7	
  2a:	6f 64       	addc.b	@r4,	r15	
  2c:	65 00       	.word	0x0065;	????	
  2e:	68 65       	addc.b	@r5,	r8	
  30:	61 64       	addc.b	@r4,	r1	
  32:	00 5f       	add	r15,	r0	
  34:	5f 54 41 30 	add.b	12353(r4),r15	;0x3041(r4)
  38:	43 43       	clr.b	#0		;r3 As==00
  3a:	54 4c 31 00 	mov.b	49(r12),r4	;0x0031(r12)
  3e:	74 69       	addc.b	@r9+,	r4	
  40:	6d 65       	addc.b	@r5,	r13	
  42:	72 00       	.word	0x0072;	????	
  44:	69 6e       	addc.b	@r14,	r9	
  46:	69 74       	subc.b	@r4,	r9	
  48:	69 61       	addc.b	@r1,	r9	
  4a:	6c 69       	addc.b	@r9,	r12	
  4c:	7a 65       	addc.b	@r5+,	r10	
  4e:	5f 64 74 63 	addc.b	25460(r4),r15	;0x6374(r4)
  52:	00 5f       	add	r15,	r0	
  54:	5f 50 31 53 	add.b	21297(r0),r15	;PC rel. 0x5387
  58:	45 4c       	mov.b	r12,	r5	
  5a:	00 6c       	addc	r12,	r0	
  5c:	6f 6e       	addc.b	@r14,	r15	
  5e:	67 20       	jnz	$+208    	;abs 0x12e
  60:	6c 6f       	addc.b	@r15,	r12	
  62:	6e 67       	addc.b	@r7,	r14	
  64:	20 69       	addc	@r9,	r0	
  66:	6e 74       	subc.b	@r4,	r14	
  68:	00 70       	subc	r0,	r0	
  6a:	6f 74       	subc.b	@r4,	r15	
  6c:	2e 63       	addc	#2,	r14	;r3 As==10
  6e:	00 5f       	add	r15,	r0	
  70:	5f 44 43 4f 	mov.b	20291(r4),r15	;0x4f43(r4)
  74:	43 54       	.word	0x5443;	????	Illegal as 2-op instr
  76:	4c 00       	.word	0x004c;	????	
  78:	5f 5f 57 44 	add.b	17495(r15),r15	;0x4457(r15)
  7c:	54 43       	mov.b	#1,	r4	;r3 As==01
  7e:	54 4c 00 47 	mov.b	18176(r12),r4	;0x4700(r12)
  82:	4e 55       	add.b	r5,	r14	
  84:	20 43       	br	#2		;r3 As==10
  86:	20 34       	jge	$+66     	;abs 0xc8
  88:	2e 36       	jge	$-930    	;abs 0xfce6
  8a:	2e 33       	jn	$-418    	;abs 0xfee8
  8c:	20 32       	jn	$-958    	;abs 0xfcce
  8e:	30 31       	jn	$+610    	;abs 0x2f0
  90:	32 30       	jn	$+102    	;abs 0xf6
  92:	33 30       	jn	$+104    	;abs 0xfa
  94:	31 20       	jnz	$+100    	;abs 0xf8
  96:	28 6d       	addc	@r13,	r8	
  98:	73 70       	.word	0x7073;	????	Illegal as 2-op instr
  9a:	67 63       	addc.b	#2,	r7	;r3 As==10
  9c:	63 20       	jnz	$+200    	;abs 0x164
  9e:	4c 54       	add.b	r4,	r12	
  a0:	53 20       	jnz	$+168    	;abs 0x148
  a2:	32 30       	jn	$+102    	;abs 0x108
  a4:	31 32       	jn	$-924    	;abs 0xfd08
  a6:	30 34       	jge	$+98     	;abs 0x108
  a8:	30 36       	jge	$-926    	;abs 0xfd0a
  aa:	20 75       	subc	@r5,	r0	
  ac:	6e 70       	subc.b	@r0,	r14	
  ae:	61 74       	subc.b	@r4,	r1	
  b0:	63 68       	.word	0x6863;	????	Illegal as 2-op instr
  b2:	65 64       	addc.b	@r4,	r5	
  b4:	29 00       	.word	0x0029;	????	
  b6:	62 75       	subc.b	@r5,	r2	
  b8:	74 74       	subc.b	@r4+,	r4	
  ba:	6f 6e       	addc.b	@r14,	r15	
  bc:	00 5f       	add	r15,	r0	
  be:	5f 50 31 52 	add.b	21041(r0),r15	;PC rel. 0x52f1
  c2:	45 4e       	mov.b	r14,	r5	
  c4:	00 5f       	add	r15,	r0	
  c6:	5f 50 31 49 	add.b	18737(r0),r15	;PC rel. 0x49f9
  ca:	45 53       	add.b	#0,	r5	;r3 As==00
  cc:	00 5f       	add	r15,	r0	
  ce:	5f 43       	mov.b	#1,	r15	;r3 As==01
  d0:	41 4c       	mov.b	r12,	r1	
  d2:	44 43       	clr.b	r4		
  d4:	4f 5f       	rla.b	r15		
  d6:	31 4d       	mov	@r13+,	r1	
  d8:	48 5a       	add.b	r10,	r8	
  da:	00 75       	subc	r5,	r0	
  dc:	6e 73       	subc.b	#2,	r14	;r3 As==10
  de:	69 67       	addc.b	@r7,	r9	
  e0:	6e 65       	addc.b	@r5,	r14	
  e2:	64 20       	jnz	$+202    	;abs 0x1ac
  e4:	63 68       	.word	0x6863;	????	Illegal as 2-op instr
  e6:	61 72       	subc.b	#4,	r1	;r2 As==10
  e8:	00 6c       	addc	r12,	r0	
  ea:	6f 6e       	addc.b	@r14,	r15	
  ec:	67 20       	jnz	$+208    	;abs 0x1bc
  ee:	6c 6f       	addc.b	@r15,	r12	
  f0:	6e 67       	addc.b	@r7,	r14	
  f2:	20 75       	subc	@r5,	r0	
  f4:	6e 73       	subc.b	#2,	r14	;r3 As==10
  f6:	69 67       	addc.b	@r7,	r9	
  f8:	6e 65       	addc.b	@r5,	r14	
  fa:	64 20       	jnz	$+202    	;abs 0x1c4
  fc:	69 6e       	addc.b	@r14,	r9	
  fe:	74 00       	.word	0x0074;	????	
 100:	5f 5f 41 44 	add.b	17473(r15),r15	;0x4441(r15)
 104:	43 31       	jn	$+648    	;abs 0x38c
 106:	30 53       	add	#-1,	r0	;r3 As==11
 108:	41 00       	.word	0x0041;	????	
 10a:	63 75       	.word	0x7563;	????	Illegal as 2-op instr
 10c:	72 72       	subc.b	#8,	r2	;r2 As==11
 10e:	65 6e       	addc.b	@r14,	r5	
 110:	74 00       	.word	0x0074;	????	
 112:	2f 68       	addc	@r8,	r15	
 114:	6f 6d       	addc.b	@r13,	r15	
 116:	65 2f       	jc	$-308    	;abs 0xffe2
 118:	62 72       	subc.b	#4,	r2	;r2 As==10
 11a:	79 61       	addc.b	@r1+,	r9	
 11c:	6e 2f       	jc	$-290    	;abs 0xfffa
 11e:	44 6f       	addc.b	r15,	r4	
 120:	63 75       	.word	0x7563;	????	Illegal as 2-op instr
 122:	6d 65       	addc.b	@r5,	r13	
 124:	6e 74       	subc.b	@r4,	r14	
 126:	73 2f       	jc	$-280    	;abs 0xe
 128:	43 53       	.word	0x5343;	????	Illegal as emulation instr
 12a:	32 32       	jn	$-922    	;abs 0xfd90
 12c:	33 30       	jn	$+104    	;abs 0x194
 12e:	2f 61       	addc	@r1,	r15	
 130:	34 00       	.word	0x0034;	????	
 132:	73 68       	.word	0x6873;	????	Illegal as 2-op instr
 134:	6f 72       	subc.b	#4,	r15	;r2 As==10
 136:	74 20       	jnz	$+234    	;abs 0x220
 138:	75 6e       	addc.b	@r14+,	r5	
 13a:	73 69       	.word	0x6973;	????	Illegal as 2-op instr
 13c:	67 6e       	addc.b	@r14,	r7	
 13e:	65 64       	addc.b	@r4,	r5	
 140:	20 69       	addc	@r9,	r0	
 142:	6e 74       	subc.b	@r4,	r14	
 144:	00 5f       	add	r15,	r0	
 146:	5f 41 44 43 	mov.b	17220(r1),r15	;0x4344(r1)
 14a:	31 30       	jn	$+100    	;abs 0x1ae
 14c:	44 54       	rla.b	r4		
 14e:	43 30       	jn	$+136    	;abs 0x1d6
 150:	00 5f       	add	r15,	r0	
 152:	5f 41 44 43 	mov.b	17220(r1),r15	;0x4344(r1)
 156:	31 30       	jn	$+100    	;abs 0x1ba
 158:	44 54       	rla.b	r4		
 15a:	43 31       	jn	$+648    	;abs 0x3e2
 15c:	00 63       	adc	r0		
 15e:	68 61       	addc.b	@r1,	r8	
 160:	6e 6e       	addc.b	@r14,	r14	
 162:	65 6c       	addc.b	@r12,	r5	
 164:	00 5f       	add	r15,	r0	
 166:	5f 42 43 53 	mov.b	&0x5343,r15	
 16a:	43 54       	.word	0x5443;	????	Illegal as 2-op instr
 16c:	4c 31       	jn	$+666    	;abs 0x406
 16e:	00 5f       	add	r15,	r0	
 170:	5f 41 44 43 	mov.b	17220(r1),r15	;0x4344(r1)
 174:	31 30       	jn	$+100    	;abs 0x1d8
 176:	41 45       	mov.b	r5,	r1	
 178:	30 00       	.word	0x0030;	????	
 17a:	5f 5f 50 31 	add.b	12624(r15),r15	;0x3150(r15)
 17e:	49 45       	mov.b	r5,	r9	
 180:	00 5f       	add	r15,	r0	
 182:	5f 41 44 43 	mov.b	17220(r1),r15	;0x4344(r1)
 186:	31 30       	jn	$+100    	;abs 0x1ea
 188:	43 54       	.word	0x5443;	????	Illegal as 2-op instr
 18a:	4c 30       	jn	$+154    	;abs 0x224
 18c:	00 5f       	add	r15,	r0	
 18e:	5f 41 44 43 	mov.b	17220(r1),r15	;0x4344(r1)
 192:	31 30       	jn	$+100    	;abs 0x1f6
 194:	43 54       	.word	0x5443;	????	Illegal as 2-op instr
 196:	4c 31       	jn	$+666    	;abs 0x430
 198:	00 5f       	add	r15,	r0	
 19a:	5f 54 41 30 	add.b	12353(r4),r15	;0x3041(r4)
 19e:	43 43       	clr.b	#0		;r3 As==00
 1a0:	52 30       	jn	$+166    	;abs 0x246
 1a2:	00 70       	subc	r0,	r0	
 1a4:	6f 69       	addc.b	@r9,	r15	
 1a6:	6e 74       	subc.b	@r4,	r14	
 1a8:	65 72       	subc.b	#4,	r5	;r2 As==10
 1aa:	00 5f       	add	r15,	r0	
 1ac:	6e 6f       	addc.b	@r15,	r14	
 1ae:	74 65       	addc.b	@r5+,	r4	
 1b0:	5f 74 00 70 	subc.b	28672(r4),r15	;0x7000(r4)
 1b4:	69 74       	subc.b	@r4,	r9	
 1b6:	63 68       	.word	0x6863;	????	Illegal as 2-op instr
 1b8:	00 5f       	add	r15,	r0	
 1ba:	5f 43       	mov.b	#1,	r15	;r3 As==01
 1bc:	41 4c       	mov.b	r12,	r1	
 1be:	42 43       	clr.b	r2		
 1c0:	31 5f       	add	@r15+,	r1	
 1c2:	31 4d       	mov	@r13+,	r1	
 1c4:	48 5a       	add.b	r10,	r8	
 1c6:	00 6c       	addc	r12,	r0	
 1c8:	69 6e       	addc.b	@r14,	r9	
 1ca:	65 00       	.word	0x0065;	????	
 1cc:	63 69       	.word	0x6963;	????	Illegal as 2-op instr
 1ce:	6f 5f       	add.b	@r15,	r15	
 1d0:	70 72       	subc.b	#8,	r0	;r2 As==11
 1d2:	69 6e       	addc.b	@r14,	r9	
 1d4:	74 62       	addc.b	#8,	r4	;r2 As==11
 1d6:	00 63       	adc	r0		
 1d8:	69 6f       	addc.b	@r15,	r9	
 1da:	5f 70 72 69 	subc.b	26994(r0),r15	;PC rel. 0x6b4e
 1de:	6e 74       	subc.b	@r4,	r14	
 1e0:	66 00       	.word	0x0066;	????	
 1e2:	5f 5f 62 75 	add.b	30050(r15),r15	;0x7562(r15)
 1e6:	69 6c       	addc.b	@r12,	r9	
 1e8:	74 69       	addc.b	@r9+,	r4	
 1ea:	6e 5f       	add.b	@r15,	r14	
 1ec:	76 61       	addc.b	@r1+,	r6	
 1ee:	5f 6c 69 73 	addc.b	29545(r12),r15	;0x7369(r12)
 1f2:	74 00       	.word	0x0074;	????	
 1f4:	63 69       	.word	0x6963;	????	Illegal as 2-op instr
 1f6:	6f 5f       	add.b	@r15,	r15	
 1f8:	70 72       	subc.b	#8,	r0	;r2 As==11
 1fa:	69 6e       	addc.b	@r14,	r9	
 1fc:	74 69       	addc.b	@r9+,	r4	
 1fe:	00 5f       	add	r15,	r0	
 200:	78 74       	subc.b	@r4+,	r8	
 202:	6f 61       	addc.b	@r1,	r15	
 204:	00 62       	addc	r2,	r0	
 206:	61 64       	addc.b	@r4,	r1	
 208:	5f 66 6d 74 	addc.b	29805(r6),r15	;0x746d(r6)
 20c:	00 5f       	add	r15,	r0	
 20e:	70 75       	subc.b	@r5+,	r0	
 210:	74 68       	addc.b	@r8+,	r4	
 212:	00 63       	adc	r0		
 214:	6f 6e       	addc.b	@r14,	r15	
 216:	69 6f       	addc.b	@r15,	r9	
 218:	2e 63       	addc	#2,	r14	;r3 As==10
 21a:	00 66       	addc	r6,	r0	
 21c:	6f 72       	subc.b	#4,	r15	;r2 As==10
 21e:	6d 61       	addc.b	@r1,	r13	
 220:	74 00       	.word	0x0074;	????	
 222:	63 69       	.word	0x6963;	????	Illegal as 2-op instr
 224:	6f 5f       	add.b	@r15,	r15	
 226:	70 72       	subc.b	#8,	r0	;r2 As==11
 228:	69 6e       	addc.b	@r14,	r9	
 22a:	74 00       	.word	0x0074;	????	
 22c:	2f 68       	addc	@r8,	r15	
 22e:	6f 6d       	addc.b	@r13,	r15	
 230:	65 2f       	jc	$-308    	;abs 0xfc
 232:	62 72       	subc.b	#4,	r2	;r2 As==10
 234:	79 61       	addc.b	@r1+,	r9	
 236:	6e 2f       	jc	$-290    	;abs 0x114
 238:	44 6f       	addc.b	r15,	r4	
 23a:	77 6e       	addc.b	@r14+,	r7	
 23c:	6c 6f       	addc.b	@r15,	r12	
 23e:	61 64       	addc.b	@r4,	r1	
 240:	73 2f       	jc	$-280    	;abs 0x128
 242:	6c 69       	addc.b	@r9,	r12	
 244:	62 65       	addc.b	@r5,	r2	
 246:	6d 62       	addc.b	#4,	r13	;r2 As==10
 248:	2d 6d       	addc	@r13,	r13	
 24a:	61 73       	subc.b	#2,	r1	;r3 As==10
 24c:	74 65       	addc.b	@r5+,	r4	
 24e:	72 2f       	jc	$-282    	;abs 0x134
 250:	6c 69       	addc.b	@r9,	r12	
 252:	62 63       	addc.b	#2,	r2	;r3 As==10
 254:	6f 6e       	addc.b	@r14,	r15	
 256:	69 6f       	addc.b	@r15,	r9	
 258:	2f 73       	subc	#2,	r15	;r3 As==10
 25a:	72 63       	addc.b	#-1,	r2	;r3 As==11
 25c:	00 5f       	add	r15,	r0	
 25e:	5f 67 6e 75 	addc.b	30062(r7),r15	;0x756e(r7)
 262:	63 5f       	.word	0x5f63;	????	Illegal as 2-op instr
 264:	76 61       	addc.b	@r1+,	r6	
 266:	5f 6c 69 73 	addc.b	29545(r12),r15	;0x7369(r12)
 26a:	74 00       	.word	0x0074;	????	
 26c:	62 75       	subc.b	@r5,	r2	
 26e:	66 66       	addc.b	@r6,	r6	
 270:	65 72       	subc.b	#4,	r5	;r2 As==10
 272:	00 63       	adc	r0		
 274:	69 6f       	addc.b	@r15,	r9	
 276:	5f 67 65 74 	addc.b	29797(r7),r15	;0x7465(r7)
 27a:	63 00       	.word	0x0063;	????	
 27c:	63 69       	.word	0x6963;	????	Illegal as 2-op instr
 27e:	6f 5f       	add.b	@r15,	r15	
 280:	70 72       	subc.b	#8,	r0	;r2 As==11
 282:	69 6e       	addc.b	@r14,	r9	
 284:	74 63       	addc.b	#-1,	r4	;r3 As==11
 286:	00 63       	adc	r0		
 288:	6f 6e       	addc.b	@r14,	r15	
 28a:	69 6f       	addc.b	@r15,	r9	
 28c:	5f 73       	subc.b	#1,	r15	;r3 As==01
 28e:	65 72       	subc.b	#4,	r5	;r2 As==10
 290:	69 61       	addc.b	@r1,	r9	
 292:	6c 2e       	jc	$-806    	;abs 0xff6c
 294:	63 00       	.word	0x0063;	????	
 296:	63 6c       	.word	0x6c63;	????	Illegal as 2-op instr
 298:	6b 73       	subc.b	#2,	r11	;r3 As==10
 29a:	70 65       	addc.b	@r5+,	r0	
 29c:	65 64       	addc.b	@r4,	r5	
 29e:	00 73       	sbc	r0		
 2a0:	65 72       	subc.b	#4,	r5	;r2 As==10
 2a2:	69 61       	addc.b	@r1,	r9	
 2a4:	6c 5f       	add.b	@r15,	r12	
 2a6:	72 65       	addc.b	@r5+,	r2	
 2a8:	63 76       	.word	0x7663;	????	Illegal as 2-op instr
 2aa:	5f 62 6c 6f 	addc.b	&0x6f6c,r15	
 2ae:	63 6b       	.word	0x6b63;	????	Illegal as 2-op instr
 2b0:	69 6e       	addc.b	@r14,	r9	
 2b2:	67 00       	.word	0x0067;	????	
 2b4:	73 65       	.word	0x6573;	????	Illegal as 2-op instr
 2b6:	72 69       	addc.b	@r9+,	r2	
 2b8:	61 6c       	addc.b	@r12,	r1	
 2ba:	5f 75 73 63 	subc.b	25459(r5),r15	;0x6373(r5)
 2be:	69 5f       	add.b	@r15,	r9	
 2c0:	6d 73       	subc.b	#2,	r13	;r3 As==10
 2c2:	70 34       	jge	$+226    	;abs 0x3a4
 2c4:	33 30       	jn	$+104    	;abs 0x32c
 2c6:	2e 63       	addc	#2,	r14	;r3 As==10
 2c8:	00 5f       	add	r15,	r0	
 2ca:	5f 55 43 41 	add.b	16707(r5),r15	;0x4143(r5)
 2ce:	30 52       	add	#8,	r0	;r2 As==11
 2d0:	58 42 55 46 	mov.b	&0x4655,r8	
 2d4:	00 5f       	add	r15,	r0	
 2d6:	5f 55 43 41 	add.b	16707(r5),r15	;0x4143(r5)
 2da:	30 43       	br	#-1		;r3 As==11
 2dc:	54 4c 31 00 	mov.b	49(r12),r4	;0x0031(r12)
 2e0:	73 65       	.word	0x6573;	????	Illegal as 2-op instr
 2e2:	72 69       	addc.b	@r9+,	r2	
 2e4:	61 6c       	addc.b	@r12,	r1	
 2e6:	5f 72 65 63 	subc.b	&0x6365,r15	
 2ea:	76 00       	.word	0x0076;	????	
 2ec:	73 65       	.word	0x6573;	????	Illegal as 2-op instr
 2ee:	72 69       	addc.b	@r9+,	r2	
 2f0:	61 6c       	addc.b	@r12,	r1	
 2f2:	5f 73       	subc.b	#1,	r15	;r3 As==01
 2f4:	65 6e       	addc.b	@r14,	r5	
 2f6:	64 00       	.word	0x0064;	????	
 2f8:	5f 5f 50 31 	add.b	12624(r15),r15	;0x3150(r15)
 2fc:	53 45       	.word	0x4553;	????	Illegal as 2-op instr
 2fe:	4c 32       	jn	$-870    	;abs 0xff98
 300:	00 64       	addc	r4,	r0	
 302:	61 74       	subc.b	@r4,	r1	
 304:	61 00       	.word	0x0061;	????	
 306:	62 61       	addc.b	@r1,	r2	
 308:	75 64       	addc.b	@r4+,	r5	
 30a:	72 61       	addc.b	@r1+,	r2	
 30c:	74 65       	addc.b	@r5+,	r4	
 30e:	00 73       	sbc	r0		
 310:	65 72       	subc.b	#4,	r5	;r2 As==10
 312:	69 61       	addc.b	@r1,	r9	
 314:	6c 5f       	add.b	@r15,	r12	
 316:	63 6c       	.word	0x6c63;	????	Illegal as 2-op instr
 318:	6b 5f       	add.b	@r15,	r11	
 31a:	69 6e       	addc.b	@r14,	r9	
 31c:	69 74       	subc.b	@r4,	r9	
 31e:	00 5f       	add	r15,	r0	
 320:	5f 55 43 41 	add.b	16707(r5),r15	;0x4143(r5)
 324:	30 54       	add	@r4+,	r0	
 326:	58 42 55 46 	mov.b	&0x4655,r8	
 32a:	00 73       	sbc	r0		
 32c:	65 72       	subc.b	#4,	r5	;r2 As==10
 32e:	69 61       	addc.b	@r1,	r9	
 330:	6c 5f       	add.b	@r15,	r12	
 332:	69 6e       	addc.b	@r14,	r9	
 334:	69 74       	subc.b	@r4,	r9	
 336:	00 2f       	jc	$-510    	;abs 0x138
 338:	68 6f       	addc.b	@r15,	r8	
 33a:	6d 65       	addc.b	@r5,	r13	
 33c:	2f 62       	addc	#4,	r15	;r2 As==10
 33e:	72 79       	subc.b	@r9+,	r2	
 340:	61 6e       	addc.b	@r14,	r1	
 342:	2f 44       	mov	@r4,	r15	
 344:	6f 77       	subc.b	@r7,	r15	
 346:	6e 6c       	addc.b	@r12,	r14	
 348:	6f 61       	addc.b	@r1,	r15	
 34a:	64 73       	subc.b	#2,	r4	;r3 As==10
 34c:	2f 6c       	addc	@r12,	r15	
 34e:	69 62       	addc.b	#4,	r9	;r2 As==10
 350:	65 6d       	addc.b	@r13,	r5	
 352:	62 2d       	jc	$+710    	;abs 0x618
 354:	6d 61       	addc.b	@r1,	r13	
 356:	73 74       	.word	0x7473;	????	Illegal as 2-op instr
 358:	65 72       	subc.b	#4,	r5	;r2 As==10
 35a:	2f 6c       	addc	@r12,	r15	
 35c:	69 62       	addc.b	#4,	r9	;r2 As==10
 35e:	73 65       	.word	0x6573;	????	Illegal as 2-op instr
 360:	72 69       	addc.b	@r9+,	r2	
 362:	61 6c       	addc.b	@r12,	r1	
 364:	2f 73       	subc	#2,	r15	;r3 As==10
 366:	72 63       	addc.b	#-1,	r2	;r3 As==11
 368:	00 5f       	add	r15,	r0	
 36a:	5f 55 43 41 	add.b	16707(r5),r15	;0x4143(r5)
 36e:	30 4d       	br	@r13+		
 370:	43 54       	.word	0x5443;	????	Illegal as 2-op instr
 372:	4c 00       	.word	0x004c;	????	
 374:	73 65       	.word	0x6573;	????	Illegal as 2-op instr
 376:	72 69       	addc.b	@r9+,	r2	
 378:	61 6c       	addc.b	@r12,	r1	
 37a:	5f 73       	subc.b	#1,	r15	;r3 As==01
 37c:	65 6e       	addc.b	@r14,	r5	
 37e:	64 5f       	add.b	@r15,	r4	
 380:	62 6c       	addc.b	@r12,	r2	
 382:	6f 63       	addc.b	#2,	r15	;r3 As==10
 384:	6b 69       	addc.b	@r9,	r11	
 386:	6e 67       	addc.b	@r7,	r14	
 388:	00 5f       	add	r15,	r0	
 38a:	5f 49 46 47 	mov.b	18246(r9),r15	;0x4746(r9)
 38e:	32 00       	.word	0x0032;	????	
 390:	5f 5f 55 43 	add.b	17237(r15),r15	;0x4355(r15)
 394:	41 30       	jn	$+132    	;abs 0x418
 396:	42 52       	rla.b	r2		
 398:	30 00       	.word	0x0030;	????	
 39a:	5f 5f 55 43 	add.b	17237(r15),r15	;0x4355(r15)
 39e:	41 30       	jn	$+132    	;abs 0x422
 3a0:	42 52       	rla.b	r2		
 3a2:	31 00       	.word	0x0031;	????	
 3a4:	78 73       	subc.b	#-1,	r8	;r3 As==11
 3a6:	69 7a       	subc.b	@r10,	r9	
 3a8:	65 00       	.word	0x0065;	????	
 3aa:	73 69       	.word	0x6973;	????	Illegal as 2-op instr
 3ac:	7a 65       	addc.b	@r5+,	r10	
 3ae:	5f 74 00 5f 	subc.b	24320(r4),r15	;0x5f00(r4)
 3b2:	5f 6e 6f 69 	addc.b	26991(r14),r15	;0x696f(r14)
 3b6:	6e 69       	addc.b	@r9,	r14	
 3b8:	74 5f       	add.b	@r15+,	r4	
 3ba:	65 6e       	addc.b	@r14,	r5	
 3bc:	64 00       	.word	0x0064;	????	
 3be:	6f 6e       	addc.b	@r14,	r15	
 3c0:	63 65       	.word	0x6563;	????	Illegal as 2-op instr
 3c2:	00 68       	addc	r8,	r0	
 3c4:	65 61       	addc.b	@r1,	r5	
 3c6:	70 5f       	add.b	@r15+,	r0	
 3c8:	62 6f       	addc.b	@r15,	r2	
 3ca:	74 74       	subc.b	@r4+,	r4	
 3cc:	6f 6d       	addc.b	@r13,	r15	
 3ce:	00 68       	addc	r8,	r0	
 3d0:	65 61       	addc.b	@r1,	r5	
 3d2:	70 5f       	add.b	@r15+,	r0	
 3d4:	74 6f       	addc.b	@r15+,	r4	
 3d6:	70 00       	.word	0x0070;	????	
 3d8:	68 65       	addc.b	@r5,	r8	
 3da:	61 70       	subc.b	@r0,	r1	
 3dc:	5f 6e 65 78 	addc.b	30821(r14),r15	;0x7865(r14)
 3e0:	74 00       	.word	0x0074;	????	
 3e2:	66 72       	subc.b	#4,	r6	;r2 As==10
 3e4:	65 65       	addc.b	@r5,	r5	
 3e6:	00 2e       	jc	$-1022   	;abs 0xffe8
 3e8:	2f 73       	subc	#2,	r15	;r3 As==10
 3ea:	74 64       	addc.b	@r4+,	r4	
 3ec:	6c 69       	addc.b	@r9,	r12	
 3ee:	62 2f       	jc	$-314    	;abs 0x2b4
 3f0:	6d 61       	addc.b	@r1,	r13	
 3f2:	6c 6c       	addc.b	@r12,	r12	
 3f4:	6f 63       	addc.b	#2,	r15	;r3 As==10
 3f6:	2e 63       	addc	#2,	r14	;r3 As==10
 3f8:	00 2f       	jc	$-510    	;abs 0x1fa
 3fa:	68 6f       	addc.b	@r15,	r8	
 3fc:	6d 65       	addc.b	@r5,	r13	
 3fe:	2f 72       	subc	#4,	r15	;r2 As==10
 400:	6f 62       	addc.b	#4,	r15	;r2 As==10
 402:	65 72       	subc.b	#4,	r5	;r2 As==10
 404:	74 69       	addc.b	@r9+,	r4	
 406:	6e 61       	addc.b	@r1,	r14	
 408:	6e 74       	subc.b	@r4,	r14	
 40a:	2f 6d       	addc	@r13,	r15	
 40c:	73 70       	.word	0x7073;	????	Illegal as 2-op instr
 40e:	67 63       	addc.b	#2,	r7	;r3 As==10
 410:	63 2f       	jc	$-312    	;abs 0x2d8
 412:	6d 73       	subc.b	#2,	r13	;r3 As==10
 414:	70 34       	jge	$+226    	;abs 0x4f6
 416:	33 30       	jn	$+104    	;abs 0x47e
 418:	2d 6c       	addc	@r12,	r13	
 41a:	69 62       	addc.b	#4,	r9	;r2 As==10
 41c:	63 2d       	jc	$+712    	;abs 0x6e4
 41e:	32 30       	jn	$+102    	;abs 0x484
 420:	31 32       	jn	$-924    	;abs 0x84
 422:	30 32       	jn	$-926    	;abs 0x84
 424:	32 34       	jge	$+102    	;abs 0x48a
 426:	2f 73       	subc	#2,	r15	;r3 As==10
 428:	72 63       	addc.b	#-1,	r2	;r3 As==11
 42a:	00 6d       	addc	r13,	r0	
 42c:	61 6c       	addc.b	@r12,	r1	
 42e:	6c 6f       	addc.b	@r15,	r12	
 430:	63 00       	.word	0x0063;	????	

Disassembly of section .debug_loc:

00000000 <.debug_loc>:
   0:	3e c0 42 c0 	bic	#-16318,r14	;#0xc042
   4:	02 00       	.word	0x0002;	????	
   6:	71 00       	.word	0x0071;	????	
   8:	42 c0       	bic.b	r0,	r2	
   a:	48 c0       	bic.b	r0,	r8	
   c:	02 00       	.word	0x0002;	????	
   e:	71 02       	.word	0x0271;	????	
  10:	48 c0       	bic.b	r0,	r8	
  12:	c4 c0 02 00 	bic.b	r0,	2(r4)	;0x0002(r4)
  16:	71 00       	.word	0x0071;	????	
  18:	c4 c0 ca c0 	bic.b	r0,	-16182(r4);0xc0ca(r4)
  1c:	02 00       	.word	0x0002;	????	
  1e:	71 02       	.word	0x0271;	????	
  20:	ca c0 f0 c0 	bic.b	r0,	-16144(r10);0xc0f0(r10)
  24:	02 00       	.word	0x0002;	????	
  26:	71 00       	.word	0x0071;	????	
  28:	00 00       	.word	0x0000;	????	
  2a:	00 00       	.word	0x0000;	????	
  2c:	fa c0 fc c0 	bic.b	#-16132,2(r10)	;#0xc0fc, 0x0002(r10)
  30:	02 00 
  32:	71 02       	.word	0x0271;	????	
  34:	fc c0 94 c1 	bic.b	#-15980,2(r12)	;#0xc194, 0x0002(r12)
  38:	02 00 
  3a:	71 06       	.word	0x0671;	????	
  3c:	00 00       	.word	0x0000;	????	
  3e:	00 00       	.word	0x0000;	????	
  40:	96 c1 98 c1 	bic	-15976(r1),2(r6)	;0xc198(r1), 0x0002(r6)
  44:	02 00 
  46:	71 00       	.word	0x0071;	????	
  48:	98 c1 9a c1 	bic	-15974(r1),2(r8)	;0xc19a(r1), 0x0002(r8)
  4c:	02 00 
  4e:	71 02       	.word	0x0271;	????	
  50:	9a c1 9c c1 	bic	-15972(r1),2(r10)	;0xc19c(r1), 0x0002(r10)
  54:	02 00 
  56:	71 04       	.word	0x0471;	????	
  58:	9c c1 9e c1 	bic	-15970(r1),2(r12)	;0xc19e(r1), 0x0002(r12)
  5c:	02 00 
  5e:	71 06       	.word	0x0671;	????	
  60:	9e c1 a0 c1 	bic	-15968(r1),2(r14)	;0xc1a0(r1), 0x0002(r14)
  64:	02 00 
  66:	71 08       	.word	0x0871;	????	
  68:	a0 c1 e8 c1 	bic	@r1,	-15896(r0);PC rel. 0xc252
  6c:	02 00       	.word	0x0002;	????	
  6e:	71 0a       	.word	0x0a71;	????	
  70:	00 00       	.word	0x0000;	????	
  72:	00 00       	.word	0x0000;	????	
  74:	00 00       	.word	0x0000;	????	
  76:	02 00       	.word	0x0002;	????	
  78:	02 00       	.word	0x0002;	????	
  7a:	71 02       	.word	0x0271;	????	
  7c:	02 00       	.word	0x0002;	????	
  7e:	04 00       	.word	0x0004;	????	
  80:	02 00       	.word	0x0002;	????	
  82:	71 04       	.word	0x0471;	????	
  84:	04 00       	.word	0x0004;	????	
  86:	06 00       	.word	0x0006;	????	
  88:	02 00       	.word	0x0002;	????	
  8a:	71 06       	.word	0x0671;	????	
  8c:	06 00       	.word	0x0006;	????	
  8e:	08 00       	.word	0x0008;	????	
  90:	02 00       	.word	0x0002;	????	
  92:	71 08       	.word	0x0871;	????	
  94:	08 00       	.word	0x0008;	????	
  96:	0a 00       	.word	0x000a;	????	
  98:	02 00       	.word	0x0002;	????	
  9a:	71 0a       	.word	0x0a71;	????	
  9c:	0a 00       	.word	0x000a;	????	
  9e:	6a 00       	.word	0x006a;	????	
  a0:	02 00       	.word	0x0002;	????	
  a2:	71 0c       	.word	0x0c71;	????	
  a4:	00 00       	.word	0x0000;	????	
  a6:	00 00       	.word	0x0000;	????	
  a8:	00 00       	.word	0x0000;	????	
  aa:	14 00       	.word	0x0014;	????	
  ac:	06 00       	.word	0x0006;	????	
  ae:	5e 93       	cmp.b	#1,	r14	;r3 As==01
  b0:	02 5f       	add	r15,	r2	
  b2:	93 02       	.word	0x0293;	????	
  b4:	14 00       	.word	0x0014;	????	
  b6:	66 00       	.word	0x0066;	????	
  b8:	06 00       	.word	0x0006;	????	
  ba:	5a 93       	cmp.b	#1,	r10	;r3 As==01
  bc:	02 5b       	add	r11,	r2	
  be:	93 02       	.word	0x0293;	????	
  c0:	00 00       	.word	0x0000;	????	
  c2:	00 00       	.word	0x0000;	????	
  c4:	00 00       	.word	0x0000;	????	
  c6:	14 00       	.word	0x0014;	????	
  c8:	01 00       	.word	0x0001;	????	
  ca:	5d 14       	.word	0x145d;	????	
  cc:	00 60       	rlc	r0		
  ce:	00 01       	.word	0x0100;	????	
  d0:	00 57       	add	r7,	r0	
  d2:	00 00       	.word	0x0000;	????	
  d4:	00 00       	.word	0x0000;	????	
  d6:	2c 00       	.word	0x002c;	????	
  d8:	32 00       	.word	0x0032;	????	
  da:	03 00       	.word	0x0003;	????	
  dc:	08 30       	jn	$+18     	;abs 0xee
  de:	9f 32       	jn	$-704    	;abs 0xfe1e
  e0:	00 47       	br	r7		
  e2:	00 01       	.word	0x0100;	????	
  e4:	00 5f       	add	r15,	r0	
  e6:	00 00       	.word	0x0000;	????	
  e8:	00 00       	.word	0x0000;	????	
  ea:	2c 00       	.word	0x002c;	????	
  ec:	47 00       	.word	0x0047;	????	
  ee:	02 00       	.word	0x0002;	????	
  f0:	77 7c       	subc.b	@r12+,	r7	
  f2:	47 00       	.word	0x0047;	????	
  f4:	4c 00       	.word	0x004c;	????	
  f6:	06 00       	.word	0x0006;	????	
  f8:	58 93       	cmp.b	#1,	r8	;r3 As==01
  fa:	02 59       	add	r9,	r2	
  fc:	93 02       	.word	0x0293;	????	
  fe:	00 00       	.word	0x0000;	????	
 100:	00 00       	.word	0x0000;	????	
 102:	6a 00       	.word	0x006a;	????	
 104:	6e 00       	.word	0x006e;	????	
 106:	01 00       	.word	0x0001;	????	
 108:	5f 00       	.word	0x005f;	????	
 10a:	00 00       	.word	0x0000;	????	
 10c:	00 78       	subc	r8,	r0	
 10e:	00 7a       	subc	r10,	r0	
 110:	00 02       	.word	0x0200;	????	
 112:	00 71       	subc	r1,	r0	
 114:	02 7a       	subc	r10,	r2	
 116:	00 8c       	sub	r12,	r0	
 118:	00 02       	.word	0x0200;	????	
 11a:	00 71       	subc	r1,	r0	
 11c:	04 00       	.word	0x0004;	????	
 11e:	00 00       	.word	0x0000;	????	
 120:	00 78       	subc	r8,	r0	
 122:	00 7e       	subc	r14,	r0	
 124:	00 01       	.word	0x0100;	????	
 126:	00 5f       	add	r15,	r0	
 128:	00 00       	.word	0x0000;	????	
 12a:	00 00       	.word	0x0000;	????	
 12c:	7c 00       	.word	0x007c;	????	
 12e:	7e 00       	.word	0x007e;	????	
 130:	02 00       	.word	0x0002;	????	
 132:	30 9f       	cmp	@r15+,	r0	
 134:	00 00       	.word	0x0000;	????	
 136:	00 00       	.word	0x0000;	????	
 138:	8c 00       	.word	0x008c;	????	
 13a:	8e 00       	.word	0x008e;	????	
 13c:	02 00       	.word	0x0002;	????	
 13e:	71 02       	.word	0x0271;	????	
 140:	8e 00       	.word	0x008e;	????	
 142:	90 00       	.word	0x0090;	????	
 144:	02 00       	.word	0x0002;	????	
 146:	71 04       	.word	0x0471;	????	
 148:	90 00       	.word	0x0090;	????	
 14a:	92 00       	.word	0x0092;	????	
 14c:	02 00       	.word	0x0002;	????	
 14e:	71 06       	.word	0x0671;	????	
 150:	92 00       	.word	0x0092;	????	
 152:	96 00       	.word	0x0096;	????	
 154:	02 00       	.word	0x0002;	????	
 156:	71 08       	.word	0x0871;	????	
 158:	96 00       	.word	0x0096;	????	
 15a:	06 01       	.word	0x0106;	????	
 15c:	02 00       	.word	0x0002;	????	
 15e:	71 28       	jnc	$+228    	;abs 0x242
 160:	00 00       	.word	0x0000;	????	
 162:	00 00       	.word	0x0000;	????	
 164:	8c 00       	.word	0x008c;	????	
 166:	9c 00       	.word	0x009c;	????	
 168:	01 00       	.word	0x0001;	????	
 16a:	5f 9c 00 d0 	cmp.b	-12288(r12),r15	;0xd000(r12)
 16e:	00 01       	.word	0x0100;	????	
 170:	00 5b       	add	r11,	r0	
 172:	d0 00       	.word	0x00d0;	????	
 174:	d8 00       	.word	0x00d8;	????	
 176:	01 00       	.word	0x0001;	????	
 178:	5f d8 00 e0 	bis.b	-8192(r8),r15	;0xe000(r8)
 17c:	00 01       	.word	0x0100;	????	
 17e:	00 5b       	add	r11,	r0	
 180:	e0 00       	.word	0x00e0;	????	
 182:	e2 00       	.word	0x00e2;	????	
 184:	01 00       	.word	0x0001;	????	
 186:	5f 00       	.word	0x005f;	????	
 188:	00 00       	.word	0x0000;	????	
 18a:	00 d2       	bis	r2,	r0	
 18c:	00 d8       	bis	r8,	r0	
 18e:	00 01       	.word	0x0100;	????	
 190:	00 5a       	add	r10,	r0	
 192:	00 00       	.word	0x0000;	????	
 194:	00 00       	.word	0x0000;	????	
 196:	dc 00       	.word	0x00dc;	????	
 198:	e2 00       	.word	0x00e2;	????	
 19a:	03 00       	.word	0x0003;	????	
 19c:	7a 01       	.word	0x017a;	????	
 19e:	9f 00       	.word	0x009f;	????	
 1a0:	00 00       	.word	0x0000;	????	
 1a2:	00 06       	.word	0x0600;	????	
 1a4:	01 08       	.word	0x0801;	????	
 1a6:	01 02       	.word	0x0201;	????	
 1a8:	00 71       	subc	r1,	r0	
 1aa:	02 08       	.word	0x0802;	????	
 1ac:	01 0a       	.word	0x0a01;	????	
 1ae:	01 02       	.word	0x0201;	????	
 1b0:	00 71       	subc	r1,	r0	
 1b2:	04 0a       	.word	0x0a04;	????	
 1b4:	01 40       	mov	r0,	r1	
 1b6:	01 02       	.word	0x0201;	????	
 1b8:	00 71       	subc	r1,	r0	
 1ba:	06 00       	.word	0x0006;	????	
 1bc:	00 00       	.word	0x0000;	????	
 1be:	00 06       	.word	0x0600;	????	
 1c0:	01 10       	rrc	r1		
 1c2:	01 01       	.word	0x0101;	????	
 1c4:	00 5f       	add	r15,	r0	
 1c6:	10 01       	.word	0x0110;	????	
 1c8:	3c 01       	.word	0x013c;	????	
 1ca:	01 00       	.word	0x0001;	????	
 1cc:	5a 00       	.word	0x005a;	????	
 1ce:	00 00       	.word	0x0000;	????	
 1d0:	00 06       	.word	0x0600;	????	
 1d2:	01 10       	rrc	r1		
 1d4:	01 01       	.word	0x0101;	????	
 1d6:	00 5e       	add	r14,	r0	
 1d8:	00 00       	.word	0x0000;	????	
 1da:	00 00       	.word	0x0000;	????	
 1dc:	10 01       	.word	0x0110;	????	
 1de:	34 01       	.word	0x0134;	????	
 1e0:	01 00       	.word	0x0001;	????	
 1e2:	5b 36       	jge	$-840    	;abs 0xfe9a
 1e4:	01 3e       	jmp	$-1020   	;abs 0xfde8
 1e6:	01 01       	.word	0x0101;	????	
 1e8:	00 5b       	add	r11,	r0	
 1ea:	00 00       	.word	0x0000;	????	
 1ec:	00 00       	.word	0x0000;	????	
 1ee:	40 01       	.word	0x0140;	????	
 1f0:	42 01       	.word	0x0142;	????	
 1f2:	02 00       	.word	0x0002;	????	
 1f4:	71 02       	.word	0x0271;	????	
 1f6:	42 01       	.word	0x0142;	????	
 1f8:	44 01       	.word	0x0144;	????	
 1fa:	02 00       	.word	0x0002;	????	
 1fc:	71 04       	.word	0x0471;	????	
 1fe:	44 01       	.word	0x0144;	????	
 200:	46 01       	.word	0x0146;	????	
 202:	02 00       	.word	0x0002;	????	
 204:	71 06       	.word	0x0671;	????	
 206:	46 01       	.word	0x0146;	????	
 208:	48 01       	.word	0x0148;	????	
 20a:	02 00       	.word	0x0002;	????	
 20c:	71 08       	.word	0x0871;	????	
 20e:	48 01       	.word	0x0148;	????	
 210:	6a 02       	.word	0x026a;	????	
 212:	02 00       	.word	0x0002;	????	
 214:	71 0a       	.word	0x0a71;	????	
 216:	00 00       	.word	0x0000;	????	
 218:	00 00       	.word	0x0000;	????	
 21a:	40 01       	.word	0x0140;	????	
 21c:	52 01       	.word	0x0152;	????	
 21e:	02 00       	.word	0x0002;	????	
 220:	91 00       	.word	0x0091;	????	
 222:	52 01       	.word	0x0152;	????	
 224:	5e 01       	.word	0x015e;	????	
 226:	03 00       	.word	0x0003;	????	
 228:	7a 01       	.word	0x017a;	????	
 22a:	9f 5e 01 54 	add	21505(r14),258(r15);0x5401(r14), 0x0102(r15)
 22e:	02 01 
 230:	00 5a       	add	r10,	r0	
 232:	54 02       	.word	0x0254;	????	
 234:	56 02       	.word	0x0256;	????	
 236:	03 00       	.word	0x0003;	????	
 238:	7a 01       	.word	0x017a;	????	
 23a:	9f 56 02 5c 	add	23554(r6),258(r15);0x5c02(r6), 0x0102(r15)
 23e:	02 01 
 240:	00 5a       	add	r10,	r0	
 242:	5c 02       	.word	0x025c;	????	
 244:	60 02       	.word	0x0260;	????	
 246:	03 00       	.word	0x0003;	????	
 248:	7a 01       	.word	0x017a;	????	
 24a:	9f 00       	.word	0x009f;	????	
 24c:	00 00       	.word	0x0000;	????	
 24e:	00 52       	add	r2,	r0	
 250:	01 5c       	add	r12,	r1	
 252:	01 01       	.word	0x0101;	????	
 254:	00 5f       	add	r15,	r0	
 256:	5c 01       	.word	0x015c;	????	
 258:	5e 01       	.word	0x015e;	????	
 25a:	02 00       	.word	0x0002;	????	
 25c:	7a 01       	.word	0x017a;	????	
 25e:	5e 01       	.word	0x015e;	????	
 260:	a5 01       	.word	0x01a5;	????	
 262:	02 00       	.word	0x0002;	????	
 264:	7a 7f       	subc.b	@r15+,	r10	
 266:	a8 01       	.word	0x01a8;	????	
 268:	ae 01       	.word	0x01ae;	????	
 26a:	01 00       	.word	0x0001;	????	
 26c:	5f ae 01 b1 	dadd.b	-20223(r14),r15	;0xb101(r14)
 270:	01 02       	.word	0x0201;	????	
 272:	00 7a       	subc	r10,	r0	
 274:	7f b6       	bit.b	@r6+,	r15	
 276:	01 ce       	bic	r14,	r1	
 278:	01 01       	.word	0x0101;	????	
 27a:	00 5f       	add	r15,	r0	
 27c:	ce 01       	.word	0x01ce;	????	
 27e:	d1 01       	.word	0x01d1;	????	
 280:	02 00       	.word	0x0002;	????	
 282:	7a 7f       	subc.b	@r15+,	r10	
 284:	e0 01       	.word	0x01e0;	????	
 286:	08 02       	.word	0x0208;	????	
 288:	01 00       	.word	0x0001;	????	
 28a:	5f 08       	.word	0x085f;	????	
 28c:	02 0b       	.word	0x0b02;	????	
 28e:	02 02       	.word	0x0202;	????	
 290:	00 7a       	subc	r10,	r0	
 292:	7f 1c       	.word	0x1c7f;	????	
 294:	02 24       	jz	$+6      	;abs 0x29a
 296:	02 01       	.word	0x0102;	????	
 298:	00 5f       	add	r15,	r0	
 29a:	24 02       	.word	0x0224;	????	
 29c:	33 02       	.word	0x0233;	????	
 29e:	02 00       	.word	0x0002;	????	
 2a0:	7a 7f       	subc.b	@r15+,	r10	
 2a2:	54 02       	.word	0x0254;	????	
 2a4:	59 02       	.word	0x0259;	????	
 2a6:	01 00       	.word	0x0001;	????	
 2a8:	5f 5c 02 60 	add.b	24578(r12),r15	;0x6002(r12)
 2ac:	02 02       	.word	0x0202;	????	
 2ae:	00 7a       	subc	r10,	r0	
 2b0:	00 60       	rlc	r0		
 2b2:	02 6a       	addc	r10,	r2	
 2b4:	02 01       	.word	0x0102;	????	
 2b6:	00 5f       	add	r15,	r0	
 2b8:	00 00       	.word	0x0000;	????	
 2ba:	00 00       	.word	0x0000;	????	
 2bc:	bc 01       	.word	0x01bc;	????	
 2be:	ca 01       	.word	0x01ca;	????	
 2c0:	02 00       	.word	0x0002;	????	
 2c2:	79 7e       	subc.b	@r14+,	r9	
 2c4:	ca 01       	.word	0x01ca;	????	
 2c6:	e0 01       	.word	0x01e0;	????	
 2c8:	01 00       	.word	0x0001;	????	
 2ca:	5b 22       	jnz	$-840    	;abs 0xff82
 2cc:	02 33       	jn	$-506    	;abs 0xd2
 2ce:	02 02       	.word	0x0202;	????	
 2d0:	00 79       	subc	r9,	r0	
 2d2:	7e 33       	jn	$-258    	;abs 0x1d0
 2d4:	02 54       	add	r4,	r2	
 2d6:	02 01       	.word	0x0102;	????	
 2d8:	00 5b       	add	r11,	r0	
 2da:	00 00       	.word	0x0000;	????	
 2dc:	00 00       	.word	0x0000;	????	
 2de:	ea 01       	.word	0x01ea;	????	
 2e0:	04 02       	.word	0x0204;	????	
 2e2:	08 00       	.word	0x0008;	????	
 2e4:	78 7c       	subc.b	@r12+,	r8	
 2e6:	93 02       	.word	0x0293;	????	
 2e8:	78 7e       	subc.b	@r14+,	r8	
 2ea:	93 02       	.word	0x0293;	????	
 2ec:	04 02       	.word	0x0204;	????	
 2ee:	0b 02       	.word	0x020b;	????	
 2f0:	07 00       	.word	0x0007;	????	
 2f2:	5c 93       	cmp.b	#1,	r12	;r3 As==01
 2f4:	02 78       	subc	r8,	r2	
 2f6:	7e 93       	cmp.b	#-1,	r14	;r3 As==11
 2f8:	02 0b       	.word	0x0b02;	????	
 2fa:	02 1a       	.word	0x1a02;	????	
 2fc:	02 06       	.word	0x0602;	????	
 2fe:	00 59       	add	r9,	r0	
 300:	93 02       	.word	0x0293;	????	
 302:	5b 93       	cmp.b	#1,	r11	;r3 As==01
 304:	02 00       	.word	0x0002;	????	
 306:	00 00       	.word	0x0000;	????	
 308:	00 50       	rla	r0		
 30a:	01 a0       	dadd	r0,	r1	
 30c:	01 01       	.word	0x0101;	????	
 30e:	00 5b       	add	r11,	r0	
 310:	a0 01       	.word	0x01a0;	????	
 312:	a8 01       	.word	0x01a8;	????	
 314:	01 00       	.word	0x0001;	????	
 316:	59 a8 01 ac 	dadd.b	-21503(r8),r9	;0xac01(r8)
 31a:	01 01       	.word	0x0101;	????	
 31c:	00 5b       	add	r11,	r0	
 31e:	ac 01       	.word	0x01ac;	????	
 320:	b6 01       	.word	0x01b6;	????	
 322:	01 00       	.word	0x0001;	????	
 324:	59 b6 01 ba 	bit.b	-17919(r6),r9	;0xba01(r6)
 328:	01 01       	.word	0x0101;	????	
 32a:	00 5b       	add	r11,	r0	
 32c:	ba 01       	.word	0x01ba;	????	
 32e:	e0 01       	.word	0x01e0;	????	
 330:	01 00       	.word	0x0001;	????	
 332:	59 e0 01 e4 	xor.b	-7167(r0),r9	;PC rel. 0xe735
 336:	01 01       	.word	0x0101;	????	
 338:	00 5b       	add	r11,	r0	
 33a:	e4 01       	.word	0x01e4;	????	
 33c:	1c 02       	.word	0x021c;	????	
 33e:	01 00       	.word	0x0001;	????	
 340:	58 1c       	.word	0x1c58;	????	
 342:	02 20       	jnz	$+6      	;abs 0x348
 344:	02 01       	.word	0x0102;	????	
 346:	00 5b       	add	r11,	r0	
 348:	20 02       	.word	0x0220;	????	
 34a:	54 02       	.word	0x0254;	????	
 34c:	01 00       	.word	0x0001;	????	
 34e:	59 54 02 68 	add.b	26626(r4),r9	;0x6802(r4)
 352:	02 01       	.word	0x0102;	????	
 354:	00 5b       	add	r11,	r0	
 356:	00 00       	.word	0x0000;	????	
 358:	00 00       	.word	0x0000;	????	
 35a:	00 00       	.word	0x0000;	????	
 35c:	03 00       	.word	0x0003;	????	
 35e:	01 00       	.word	0x0001;	????	
 360:	5f 00       	.word	0x005f;	????	
 362:	00 00       	.word	0x0000;	????	
 364:	00 2a       	jnc	$-1022   	;abs 0xff66
 366:	01 37       	jge	$-508    	;abs 0x16a
 368:	01 01       	.word	0x0101;	????	
 36a:	00 5f       	add	r15,	r0	
 36c:	00 00       	.word	0x0000;	????	
 36e:	00 00       	.word	0x0000;	????	
 370:	00 00       	.word	0x0000;	????	
 372:	02 00       	.word	0x0002;	????	
 374:	02 00       	.word	0x0002;	????	
 376:	71 02       	.word	0x0271;	????	
 378:	02 00       	.word	0x0002;	????	
 37a:	04 00       	.word	0x0004;	????	
 37c:	02 00       	.word	0x0002;	????	
 37e:	71 04       	.word	0x0471;	????	
 380:	04 00       	.word	0x0004;	????	
 382:	06 00       	.word	0x0006;	????	
 384:	02 00       	.word	0x0002;	????	
 386:	71 06       	.word	0x0671;	????	
 388:	06 00       	.word	0x0006;	????	
 38a:	08 00       	.word	0x0008;	????	
 38c:	02 00       	.word	0x0002;	????	
 38e:	71 08       	.word	0x0871;	????	
 390:	08 00       	.word	0x0008;	????	
 392:	0a 00       	.word	0x000a;	????	
 394:	02 00       	.word	0x0002;	????	
 396:	71 0a       	.word	0x0a71;	????	
 398:	0a 00       	.word	0x000a;	????	
 39a:	0c 00       	.word	0x000c;	????	
 39c:	02 00       	.word	0x0002;	????	
 39e:	71 0c       	.word	0x0c71;	????	
 3a0:	0c 00       	.word	0x000c;	????	
 3a2:	0e 00       	.word	0x000e;	????	
 3a4:	02 00       	.word	0x0002;	????	
 3a6:	71 0e       	.word	0x0e71;	????	
 3a8:	0e 00       	.word	0x000e;	????	
 3aa:	10 00       	.word	0x0010;	????	
 3ac:	02 00       	.word	0x0002;	????	
 3ae:	71 10       	rrc.b	@r1+		
 3b0:	10 00       	.word	0x0010;	????	
 3b2:	08 01       	.word	0x0108;	????	
 3b4:	02 00       	.word	0x0002;	????	
 3b6:	71 12       	push.b	@r1+		
 3b8:	00 00       	.word	0x0000;	????	
 3ba:	00 00       	.word	0x0000;	????	
 3bc:	00 00       	.word	0x0000;	????	
 3be:	36 00       	.word	0x0036;	????	
 3c0:	01 00       	.word	0x0001;	????	
 3c2:	5f 36       	jge	$-832    	;abs 0x82
 3c4:	00 e4       	xor	r4,	r0	
 3c6:	00 01       	.word	0x0100;	????	
 3c8:	00 5c       	add	r12,	r0	
 3ca:	f0 00       	.word	0x00f0;	????	
 3cc:	f6 00       	.word	0x00f6;	????	
 3ce:	01 00       	.word	0x0001;	????	
 3d0:	5c 00       	.word	0x005c;	????	
 3d2:	00 00       	.word	0x0000;	????	
 3d4:	00 2a       	jnc	$-1022   	;abs 0xffd6
 3d6:	00 04       	.word	0x0400;	????	
 3d8:	01 01       	.word	0x0101;	????	
 3da:	00 5a       	add	r10,	r0	
 3dc:	00 00       	.word	0x0000;	????	
 3de:	00 00       	.word	0x0000;	????	
 3e0:	18 00       	.word	0x0018;	????	
 3e2:	38 00       	.word	0x0038;	????	
 3e4:	01 00       	.word	0x0001;	????	
 3e6:	5d 38       	jl	$+188    	;abs 0x4a2
 3e8:	00 3a       	jl	$-1022   	;abs 0xffea
 3ea:	00 08       	.word	0x0800;	????	
 3ec:	00 7e       	subc	r14,	r0	
 3ee:	01 31       	jn	$+516    	;abs 0x5f2
 3f0:	24 7d       	subc	@r13,	r4	
 3f2:	00 22       	jnz	$-1022   	;abs 0xfff4
 3f4:	9f 3a       	jl	$-704    	;abs 0x134
 3f6:	00 3c       	jmp	$+2      	;abs 0x3f8
 3f8:	00 08       	.word	0x0800;	????	
 3fa:	00 7e       	subc	r14,	r0	
 3fc:	00 31       	jn	$+514    	;abs 0x5fe
 3fe:	24 7d       	subc	@r13,	r4	
 400:	00 22       	jnz	$-1022   	;abs 0x2
 402:	9f 3e       	jmp	$-704    	;abs 0x142
 404:	00 f0       	and	r0,	r0	
 406:	00 01       	.word	0x0100;	????	
 408:	00 5d       	add	r13,	r0	
 40a:	f0 00       	.word	0x00f0;	????	
 40c:	f4 00       	.word	0x00f4;	????	
 40e:	08 00       	.word	0x0008;	????	
 410:	7e 01       	.word	0x017e;	????	
 412:	31 24       	jz	$+100    	;abs 0x476
 414:	7d 00       	.word	0x007d;	????	
 416:	22 9f       	cmp	@r15,	r2	
 418:	00 00       	.word	0x0000;	????	
 41a:	00 00       	.word	0x0000;	????	
 41c:	18 00       	.word	0x0018;	????	
 41e:	38 00       	.word	0x0038;	????	
 420:	02 00       	.word	0x0002;	????	
 422:	30 9f       	cmp	@r15+,	r0	
 424:	38 00       	.word	0x0038;	????	
 426:	3e 00       	.word	0x003e;	????	
 428:	01 00       	.word	0x0001;	????	
 42a:	55 3e       	jmp	$-852    	;abs 0xd6
 42c:	00 50       	rla	r0		
 42e:	00 02       	.word	0x0200;	????	
 430:	00 30       	jn	$+2      	;abs 0x432
 432:	9f 50 00 fa 	add	-1536(r0),256(r15);PC rel. 0xfe34, 0x0100(r15)
 436:	00 01 
 438:	00 55       	add	r5,	r0	
 43a:	00 00       	.word	0x0000;	????	
 43c:	00 00       	.word	0x0000;	????	
 43e:	38 00       	.word	0x0038;	????	
 440:	3a 00       	.word	0x003a;	????	
 442:	01 00       	.word	0x0001;	????	
 444:	5e 3a       	jl	$-834    	;abs 0x102
 446:	00 3c       	jmp	$+2      	;abs 0x448
 448:	00 03       	.word	0x0300;	????	
 44a:	00 7e       	subc	r14,	r0	
 44c:	7f 9f       	cmp.b	@r15+,	r15	
 44e:	46 00       	.word	0x0046;	????	
 450:	5c 00       	.word	0x005c;	????	
 452:	01 00       	.word	0x0001;	????	
 454:	5e 82 00 96 	sub.b	&0x9600,r14	
 458:	00 01       	.word	0x0100;	????	
 45a:	00 5e       	add	r14,	r0	
 45c:	96 00       	.word	0x0096;	????	
 45e:	b4 00       	.word	0x00b4;	????	
 460:	03 00       	.word	0x0003;	????	
 462:	74 7f       	subc.b	@r15+,	r4	
 464:	9f b4 00 08 	bit	2048(r4),257(r15);0x0800(r4), 0x0101(r15)
 468:	01 01 
 46a:	00 5e       	add	r14,	r0	
 46c:	00 00       	.word	0x0000;	????	
 46e:	00 00       	.word	0x0000;	????	
 470:	46 00       	.word	0x0046;	????	
 472:	5c 00       	.word	0x005c;	????	
 474:	08 00       	.word	0x0008;	????	
 476:	7e 01       	.word	0x017e;	????	
 478:	31 24       	jz	$+100    	;abs 0x4dc
 47a:	7d 00       	.word	0x007d;	????	
 47c:	22 9f       	cmp	@r15,	r2	
 47e:	84 00       	.word	0x0084;	????	
 480:	96 00       	.word	0x0096;	????	
 482:	08 00       	.word	0x0008;	????	
 484:	7e 01       	.word	0x017e;	????	
 486:	31 24       	jz	$+100    	;abs 0x4ea
 488:	7d 00       	.word	0x007d;	????	
 48a:	22 9f       	cmp	@r15,	r2	
 48c:	96 00       	.word	0x0096;	????	
 48e:	b4 00       	.word	0x00b4;	????	
 490:	08 00       	.word	0x0008;	????	
 492:	74 00       	.word	0x0074;	????	
 494:	31 24       	jz	$+100    	;abs 0x4f8
 496:	7d 00       	.word	0x007d;	????	
 498:	22 9f       	cmp	@r15,	r2	
 49a:	00 00       	.word	0x0000;	????	
	...

Disassembly of section .debug_ranges:

00000000 <.debug_ranges>:
   0:	fa c0 e8 c1 	bic.b	#-15896,-16322(r10);#0xc1e8, 0xc03e(r10)
   4:	3e c0 
   6:	f0 c0 00 00 	bic.b	#0,	0(r0)	;#0x0000, PC rel. 0x000a
   a:	00 00 
   c:	38 00       	.word	0x0038;	????	
   e:	f0 00       	.word	0x00f0;	????	
  10:	f4 00       	.word	0x00f4;	????	
  12:	f6 00       	.word	0x00f6;	????	
  14:	00 00       	.word	0x0000;	????	
	...
